                   ; 6502bench SourceGen v1.8.5
                   FSCV            .eq     $021e  {addr/2}   ;FSCV vector
                   TubeCode        .eq     $0406
                   intnmi          .eq     $0d00  {addr/128}
                   swrom_wksp_tab  .eq     $0df0  {addr/16}
                   WKSP261_TransAddr .eq   $c261  {addr/4}
                   WKSP281_TubeClaimed .eq $c281
                   WKSP2D6_TubePresentIf0 .eq $c2d6  {addr/1}
                   fdccmd          .eq     $fe28
                   fdcsec          .eq     $fe2a
                   fdcdat          .eq     $fe2b
                   sheila_TUBE_R3_data .eq $fee5
                   GSREAD          .eq     $ffc5  {addr/2}

                                   .addrs  $8000
8000: 00                           brk

8001: 00                           .dd1    $00
8002: 00                           .dd1    $00

8003: 4c 1f a0                     jmp     serv

8006: 82                           .dd1    $82
8007: 11                           .dd1    $11
8008: 95                           .dd1    $95
8009: 44                           .dd1    $44
800a: 46                           .dd1    $46
800b: 53                           .dd1    $53
800c: 00                           .dd1    $00
800d: 32 2e 34 35                  .str    “2.45”
8011: 00                           .dd1    $00
8012: 28 43 29 31+                 .str    “(C)1985 Acorn”
801f: 00                           .dd1    $00

8020: 6c 1e 02     jmpIndFSCV      jmp     (FSCV)

                   brk_with_prefix_disc
8023: 20 38 80                     jsr     estrng
8026: 00                           brk

8027: 44 69 73 63+                 .str    “Disc ”

802c: 90 21                        bcc     L804F
                   brk_with_prefix_bad
802e: 20 38 80                     jsr     estrng
8031: 00                           brk

8032: 42 61 64 20                  .str    “Bad ”

8036: 90 17                        bcc     L804F
8038: ad dd c2     estrng          lda     $c2dd
803b: d0 03                        bne     L8040
803d: 20 e3 98                     jsr     L98E3
8040: a9 ff        L8040           lda     #$ff
8042: 8d 82 c2                     sta     $c282
8045: 8d dd c2                     sta     $c2dd
                   do_following_brk
8048: a2 02                        ldx     #$02
804a: a9 00                        lda     #$00
804c: 8d 00 01                     sta     $0100
804f: 85 b3        L804F           sta     $b3
8051: 68                           pla
8052: 85 ae                        sta     $ae
8054: 68                           pla
8055: 85 af                        sta     $af
8057: a5 b3                        lda     $b3
8059: a0 00                        ldy     #$00
805b: 20 e4 83                     jsr     L83E4
805e: b1 ae                        lda     ($ae),Y
8060: 8d 01 01                     sta     $0101
8063: ca                           dex
8064: 20 e4 83     L8064           jsr     L83E4
8067: e8                           inx
8068: b1 ae                        lda     ($ae),Y
806a: 9d 00 01                     sta     $0100,X
806d: 30 28                        bmi     L8097
806f: d0 f3                        bne     L8064
8071: 20 9e 8f                     jsr     L8F9E
8074: 2c a6 c2                     bit     $c2a6
8077: 30 03                        bmi     L807C
8079: 20 77 98                     jsr     L9877
807c: 4c 00 01     L807C           jmp     $0100

807f: 85 b3        vstrng          sta     $b3
8081: 68                           pla
8082: 85 ae                        sta     $ae
8084: 68                           pla
8085: 85 af                        sta     $af
8087: a5 b3                        lda     $b3
8089: 48                           pha
808a: 20 e4 83     @vstrnglp       jsr     L83E4
808d: b2 ae                        lda     ($ae)
808f: 30 05                        bmi     @vstrngx
8091: 20 a0 80                     jsr     pchr
8094: 80 f4                        bra     @vstrnglp

8096: 68           @vstrngx        pla
8097: 18           L8097           clc
8098: 6c ae 00                     jmp     ($00ae)

809b: 20 c3 80     L809B           jsr     L80C3
809e: a9 2e        pdot            lda     #‘.’
80a0: 20 eb 83     pchr            jsr     savita
80a3: 48                           pha
80a4: a9 ec                        lda     #$ec
80a6: 20 d9 a5                     jsr     LA5D9
80a9: 8a                           txa
80aa: 48                           pha
80ab: 09 10                        ora     #$10
80ad: 20 c7 a5                     jsr     LA5C7
80b0: fa                           plx
80b1: 68                           pla
80b2: 20 e3 ff                     jsr     $ffe3
80b5: 4c c8 a5                     jmp     LA5C8

80b8: 20 1d 84                     jsr     L841D
80bb: 48           L80BB           pha
80bc: 20 be 81                     jsr     L81BE
80bf: 20 c3 80                     jsr     L80C3
80c2: 68                           pla
80c3: 20 c8 80     L80C3           jsr     L80C8
80c6: d0 d8                        bne     pchr
80c8: 29 0f        L80C8           and     #$0f
80ca: c9 0a                        cmp     #$0a
80cc: 90 02                        bcc     L80D0
80ce: 69 06                        adc     #$06
80d0: 69 30        L80D0           adc     #$30
80d2: 60                           rts

80d3: 20 e3 80     L80D3           jsr     L80E3
80d6: ca                           dex
80d7: ca                           dex
80d8: 20 db 80                     jsr     L80DB
80db: b1 b0        L80DB           lda     ($b0),Y
80dd: 9d 72 c2                     sta     $c272,X
80e0: e8                           inx
80e1: c8                           iny
80e2: 60                           rts

80e3: 20 e6 80     L80E3           jsr     L80E6
80e6: b1 b0        L80E6           lda     ($b0),Y
80e8: 95 ba                        sta     $ba,X
80ea: e8                           inx
80eb: c8                           iny
80ec: 60                           rts

80ed: 20 52 8b     L80ED           jsr     L8B52
80f0: 4c 03 81                     jmp     L8103

80f3: 20 52 8b     L80F3           jsr     L8B52
80f6: a5 ba        L80F6           lda     $ba
80f8: 85 f2                        sta     $f2
80fa: a5 bb                        lda     $bb
80fc: 85 f3                        sta     $f3
80fe: a0 00                        ldy     #$00
8100: 20 03 87                     jsr     L8703
8103: a2 20        L8103           ldx     #$20
8105: 20 49 81                     jsr     L8149
8108: b0 1b                        bcs     brkBadName
810a: 8d 00 c2                     sta     $c200
810d: c9 2e                        cmp     #$2e
810f: d0 04                        bne     L8115
8111: 86 cc        L8111           stx     $cc
8113: f0 ee                        beq     L8103

8115: c9 3a        L8115           cmp     #$3a
8117: d0 15                        bne     L812E
8119: 20 62 8b                     jsr     L8B62
811c: 20 49 81                     jsr     L8149
811f: b0 04                        bcs     brkBadName
8121: c9 2e                        cmp     #$2e
8123: f0 de                        beq     L8103
8125: 20 2e 80     brkBadName      jsr     brk_with_prefix_bad
8128: cc                           .dd1    $cc
8129: 6e 61 6d 65+                 .zstr   “name”
812e: aa           L812E           tax
812f: 20 49 81                     jsr     L8149
8132: b0 29                        bcs     L815D
8134: c9 2e                        cmp     #$2e
8136: f0 d9                        beq     L8111
8138: a2 01                        ldx     #$01
813a: 9d 00 c2     L813A           sta     $c200,X
813d: e8                           inx
813e: 20 49 81                     jsr     L8149
8141: b0 1c                        bcs     L815F
8143: e0 07                        cpx     #$07
8145: d0 f3                        bne     L813A
8147: f0 dc                        beq     brkBadName

8149: 20 c5 ff     L8149           jsr     GSREAD
814c: 08                           php
814d: 29 7f                        and     #$7f
814f: c9 0d                        cmp     #$0d
8151: f0 08                        beq     L815B
8153: c9 20                        cmp     #$20
8155: 90 ce                        bcc     brkBadName
8157: c9 7f                        cmp     #$7f
8159: f0 ca                        beq     brkBadName
815b: 28           L815B           plp
815c: 60                           rts

815d: a2 01        L815D           ldx     #$01
815f: a9 20        L815F           lda     #$20
8161: 9d 00 c2     L8161           sta     $c200,X
8164: e8                           inx
8165: e0 40                        cpx     #$40
8167: d0 f8                        bne     L8161
8169: a2 06                        ldx     #$06
816b: bd 00 c2     L816B           lda     $c200,X
816e: 95 c5                        sta     $c5,X
8170: ca                           dex
8171: 10 f8                        bpl     L816B
8173: 60                           rts

8174: 20 eb 83     prtnam          jsr     savita
8177: b9 0f c0                     lda     $c00f,Y
817a: 08                           php
817b: 29 7f                        and     #$7f
817d: d0 05                        bne     L8184
817f: 20 cf ad                     jsr     LADCF
8182: f0 06                        beq     L818A
8184: 20 a0 80     L8184           jsr     pchr
8187: 20 9e 80                     jsr     pdot
818a: a2 06        L818A           ldx     #$06
818c: b9 08 c0     ptnam0          lda     $c008,Y
818f: 29 7f                        and     #$7f
8191: 20 a0 80                     jsr     pchr
8194: c8                           iny
8195: ca                           dex
8196: 10 f4                        bpl     ptnam0
8198: 20 cf ad                     jsr     LADCF
819b: a9 20                        lda     #$20
819d: 28                           plp
819e: 10 02                        bpl     ptnam1
81a0: a9 4c                        lda     #$4c
81a2: 20 a0 80     ptnam1          jsr     pchr
81a5: a0 01                        ldy     #$01
81a7: 20 d2 ad     yspace          jsr     LADD2
81aa: 88                           dey
81ab: d0 fa                        bne     yspace
81ad: 60                           rts

81ae: 4a           isoexe          lsr     A
81af: 4a                           lsr     A
81b0: 20 be 81     L81B0           jsr     L81BE
81b3: 29 03                        and     #$03
81b5: 60                           rts

81b6: 29 08        L81B6           and     #$08
81b8: f0 02                        beq     L81BC
81ba: a9 03                        lda     #$03
81bc: 60           L81BC           rts

81bd: 4a           L81BD           lsr     A
81be: 4a           L81BE           lsr     A
81bf: 4a           L81BF           lsr     A
81c0: 4a                           lsr     A
81c1: 4a                           lsr     A
81c2: 60                           rts

81c3: 0a           L81C3           asl     A
81c4: 0a           L81C4           asl     A
81c5: 0a                           asl     A
81c6: 0a                           asl     A
81c7: 0a                           asl     A
81c8: 60                           rts

81c9: a9 05        L81C9           lda     #$05
81cb: 8d 95 c2                     sta     $c295
81ce: a5 cd                        lda     $cd
81d0: 8d 90 c2                     sta     $c290
81d3: a9 0a                        lda     #$0a
81d5: 85 b0                        sta     $b0
81d7: a5 bc                        lda     $bc
81d9: 8d 91 c2                     sta     $c291
81dc: a5 bd                        lda     $bd
81de: 8d 92 c2                     sta     $c292
81e1: ad 74 c2                     lda     $c274
81e4: 8d 93 c2                     sta     $c293
81e7: ad 75 c2                     lda     $c275
81ea: 8d 94 c2                     sta     $c294
81ed: a9 ff                        lda     #$ff
81ef: 8d 97 c2                     sta     $c297
81f2: a5 c2                        lda     $c2
81f4: 20 b0 81                     jsr     L81B0
81f7: 8d 9a c2                     sta     $c29a
81fa: a5 c0                        lda     $c0
81fc: 8d 9b c2                     sta     $c29b
81ff: a5 c1                        lda     $c1
8201: 8d 99 c2                     sta     $c299
8204: a5 c2                        lda     $c2
8206: 29 03                        and     #$03
8208: aa                           tax
8209: a5 c3                        lda     $c3
820b: 38           L820B           sec
820c: ee 97 c2     L820C           inc     $c297
820f: e5 b0                        sbc     $b0
8211: b0 f9                        bcs     L820C
8213: ca                           dex
8214: 10 f5                        bpl     L820B
8216: 65 b0                        adc     $b0
8218: 8d 98 c2                     sta     $c298
821b: 60           rts821B         rts

821c: 20 ed 80     L821C           jsr     L80ED
821f: 30 03                        bmi     L8224
8221: 20 f3 80     L8221           jsr     L80F3
8224: 20 8e 82     L8224           jsr     lookup
8227: b0 f2                        bcs     rts821B
8229: 20 48 80     brkNotFound     jsr     do_following_brk
822c: d6                           .dd1    $d6
822d: 4e 6f 74 20+                 .zstr   “Not found”
8237: 20 fc 86                     jsr     L86FC
823a: 20 52 8b                     jsr     L8B52
823d: 20 03 87                     jsr     L8703
8240: f0 03                        beq     L8245
8242: 20 61 89                     jsr     L8961
8245: a9 2a        L8245           lda     #$2a
8247: 8d 00 c2                     sta     $c200
824a: 20 5d 81                     jsr     L815D
824d: 20 a7 a4                     jsr     LA4A7
8250: 20 24 82                     jsr     L8224
8253: 4c 64 82                     jmp     L8264

8256: 20 fc 86                     jsr     L86FC
8259: 20 a7 a4                     jsr     LA4A7
825c: 20 03 87                     jsr     L8703
825f: f0 0c                        beq     jbrkBadName
8261: 20 1c 82                     jsr     L821C
8264: 20 42 83     L8264           jsr     L8342
8267: 20 8a 82                     jsr     L828A
826a: b0 f8                        bcs     L8264
826c: 60                           rts

826d: 4c 25 81     jbrkBadName     jmp     brkBadName

8270: 20 3e 94     L8270           jsr     L943E
8273: a9 00                        lda     #$00
8275: 80 1e                        bra     L8295

8277: a2 06        L8277           ldx     #$06
8279: b5 c5        L8279           lda     $c5,X
827b: 9d 58 c2                     sta     $c258,X
827e: ca                           dex
827f: 10 f8                        bpl     L8279
8281: a9 20                        lda     #$20
8283: 8d 5f c2                     sta     $c25f
8286: a9 58                        lda     #$58
8288: d0 06                        bne     L8290

828a: a2 00        L828A           ldx     #$00
828c: 80 0a                        bra     L8298

828e: a9 00        lookup          lda     #$00
8290: 48           L8290           pha
8291: 20 42 94                     jsr     L9442
8294: 68                           pla
8295: aa           L8295           tax
8296: 64 b6                        stz     $b6
8298: a0 00        L8298           ldy     #$00
829a: a9 c0                        lda     #$c0
829c: 85 b7                        sta     $b7
829e: a5 b6                        lda     $b6
82a0: cd 05 c1                     cmp     $c105
82a3: b0 49                        bcs     L82EE
82a5: 69 08                        adc     #$08
82a7: 85 b6                        sta     $b6
82a9: 20 c3 82                     jsr     L82C3
82ac: 90 ea                        bcc     L8298
82ae: a5 cc                        lda     $cc
82b0: a0 07                        ldy     #$07
82b2: 20 f0 82                     jsr     L82F0
82b5: d0 e1                        bne     L8298
82b7: a4 b6                        ldy     $b6
82b9: 38                           sec
82ba: 88           L82BA           dey
82bb: 88                           dey
82bc: 88                           dey
82bd: 88                           dey
82be: 88                           dey
82bf: 88                           dey
82c0: 88                           dey
82c1: 88                           dey
82c2: 60                           rts

82c3: 20 eb 83     L82C3           jsr     savita
82c6: bd 00 c2     L82C6           lda     $c200,X
82c9: cd ce c2                     cmp     $c2ce
82cc: d0 13                        bne     L82E1
82ce: e8                           inx
82cf: 20 c3 82     L82CF           jsr     L82C3
82d2: b0 1b                        bcs     rts82EF
82d4: c8                           iny
82d5: c0 07                        cpy     #$07
82d7: 90 f6                        bcc     L82CF
82d9: bd 00 c2     L82D9           lda     $c200,X
82dc: c9 20                        cmp     #$20
82de: d0 0e                        bne     L82EE
82e0: 60                           rts

82e1: c0 07        L82E1           cpy     #$07
82e3: b0 f4                        bcs     L82D9
82e5: 20 f0 82                     jsr     L82F0
82e8: d0 04                        bne     L82EE
82ea: e8                           inx
82eb: c8                           iny
82ec: d0 d8                        bne     L82C6
82ee: 18           L82EE           clc
82ef: 60           rts82EF         rts

82f0: cd ce c2     L82F0           cmp     $c2ce
82f3: f0 10                        beq     rts8305
82f5: cd cd c2                     cmp     $c2cd
82f8: f0 0b                        beq     rts8305
82fa: 20 2f 83                     jsr     L832F
82fd: 51 b6                        eor     ($b6),Y
82ff: b0 02                        bcs     L8303
8301: 29 5f                        and     #$5f
8303: 29 7f        L8303           and     #$7f
8305: 60           rts8305         rts

8306: 08           L8306           php
8307: 20 2f 83                     jsr     L832F
830a: b0 02                        bcs     L830E
830c: 29 5f                        and     #$5f
830e: 29 7f        L830E           and     #$7f
8310: 28                           plp
8311: 60                           rts

8312: 20 5b a5     L8312           jsr     LA55B
8315: b9 10 c0     L8315           lda     $c010,Y
8318: 99 08 c0                     sta     $c008,Y
831b: b9 10 c1                     lda     $c110,Y
831e: 99 08 c1                     sta     $c108,Y
8321: c8                           iny
8322: cc 05 c1                     cpy     $c105
8325: 90 ee                        bcc     L8315
8327: 98                           tya
8328: e9 08                        sbc     #$08
832a: 8d 05 c1                     sta     $c105
832d: 18                           clc
832e: 60           rts832E         rts

832f: 48           L832F           pha
8330: 29 5f                        and     #$5f
8332: c9 41                        cmp     #$41
8334: 90 04                        bcc     L833A
8336: c9 5b                        cmp     #$5b
8338: 90 01                        bcc     L833B
833a: 38           L833A           sec
833b: 68           L833B           pla
833c: 60                           rts

833d: 2c c6 c2     L833D           bit     $c2c6
8340: 30 ec                        bmi     rts832E
8342: 20 eb 83     L8342           jsr     savita
8345: 20 74 81                     jsr     prtnam
8348: 98                           tya
8349: 48                           pha
834a: a9 60                        lda     #$60
834c: 85 b0                        sta     $b0
834e: a9 c2                        lda     #$c2
8350: 85 b1                        sta     $b1
8352: 20 8e 83                     jsr     L838E
8355: a0 02                        ldy     #$02
8357: 20 d2 ad                     jsr     LADD2
835a: 20 76 83                     jsr     L8376
835d: 20 76 83                     jsr     L8376
8360: 20 76 83                     jsr     L8376
8363: 68                           pla
8364: a8                           tay
8365: b9 0e c1                     lda     $c10e,Y
8368: 29 03                        and     #$03
836a: 20 c3 80                     jsr     L80C3
836d: b9 0f c1                     lda     $c10f,Y
8370: 20 bb 80                     jsr     L80BB
8373: 4c dd a7                     jmp     LA7DD

8376: a2 03        L8376           ldx     #$03
8378: b9 62 c2     L8378           lda     WKSP261_TransAddr+1,Y
837b: 20 bb 80                     jsr     L80BB
837e: 88                           dey
837f: ca                           dex
8380: d0 f6                        bne     L8378
8382: 20 92 87                     jsr     iny7
8385: 4c d2 ad                     jmp     LADD2

8388: 20 eb 83     L8388           jsr     savita
838b: 4c 51 94                     jmp     L9451

838e: 20 eb 83     L838E           jsr     savita
8391: 98                           tya
8392: 48                           pha
8393: aa                           tax
8394: a0 12                        ldy     #$12
8396: a9 00                        lda     #$00
8398: 88           L8398           dey
8399: 91 b0                        sta     ($b0),Y
839b: c0 02                        cpy     #$02
839d: d0 f9                        bne     L8398
839f: 20 d9 83     L839F           jsr     L83D9
83a2: c8                           iny
83a3: c8                           iny
83a4: c0 0e                        cpy     #$0e
83a6: d0 f7                        bne     L839F
83a8: 68                           pla
83a9: aa                           tax
83aa: bd 0f c0                     lda     $c00f,X
83ad: 10 04                        bpl     L83B3
83af: a9 08                        lda     #$08
83b1: 91 b0                        sta     ($b0),Y
83b3: bd 0e c1     L83B3           lda     $c10e,X
83b6: a0 04                        ldy     #$04
83b8: 20 c7 83                     jsr     L83C7
83bb: a0 0c                        ldy     #$0c
83bd: 4a                           lsr     A
83be: 4a                           lsr     A
83bf: 48                           pha
83c0: 29 03                        and     #$03
83c2: 91 b0                        sta     ($b0),Y
83c4: 68                           pla
83c5: a0 08                        ldy     #$08
83c7: 4a           L83C7           lsr     A
83c8: 4a                           lsr     A
83c9: 48                           pha
83ca: 29 03                        and     #$03
83cc: c9 03                        cmp     #$03
83ce: d0 05                        bne     L83D5
83d0: a9 ff                        lda     #$ff
83d2: 91 b0                        sta     ($b0),Y
83d4: c8                           iny
83d5: 91 b0        L83D5           sta     ($b0),Y
83d7: 68                           pla
83d8: 60                           rts

83d9: 20 dc 83     L83D9           jsr     L83DC
83dc: bd 08 c1     L83DC           lda     $c108,X
83df: 91 b0                        sta     ($b0),Y
83e1: e8                           inx
83e2: c8                           iny
83e3: 60                           rts

83e4: e6 ae        L83E4           inc     $ae
83e6: d0 02                        bne     rts83EA
83e8: e6 af                        inc     $af
83ea: 60           rts83EA         rts

83eb: 48           savita          pha
83ec: da                           phx
83ed: 5a                           phy
83ee: a9 84                        lda     #$84
83f0: 48                           pha
83f1: a9 0b                        lda     #$0b
83f3: 48                           pha
83f4: a0 05        L83F4           ldy     #$05
83f6: ba           L83F6           tsx
83f7: bd 07 01                     lda     $0107,X
83fa: 48                           pha
83fb: 88                           dey
83fc: d0 f8                        bne     L83F6
83fe: a0 0a                        ldy     #$0a
8400: bd 09 01     L8400           lda     $0109,X
8403: 9d 0b 01                     sta     $010b,X
8406: ca                           dex
8407: 88                           dey
8408: d0 f6                        bne     L8400
840a: 68                           pla
840b: 68                           pla
840c: 7a           L840C           ply
840d: fa                           plx
840e: 68                           pla
840f: 60                           rts

8410: 48           savit           pha
8411: da                           phx
8412: 5a                           phy
8413: 20 f4 83                     jsr     L83F4
8416: ba                           tsx
8417: 9d 03 01                     sta     $0103,X
841a: 4c 0c 84                     jmp     L840C             ;TODO: OPT: BRA

841d: 20 10 84     L841D           jsr     savit
8420: a8                           tay
8421: f0 0a                        beq     rts842D
8423: 18                           clc
8424: f8                           sed
8425: a9 00                        lda     #$00
8427: 69 01        L8427           adc     #$01
8429: 88                           dey
842a: d0 fb                        bne     L8427
842c: d8                           cld
842d: 60           rts842D         rts

842e: 29 7f                        and     #$7f
8430: c9 7f                        cmp     #$7f
8432: f0 04                        beq     L8438
8434: c9 20                        cmp     #$20
8436: b0 02                        bcs     L843A
8438: a9 2e        L8438           lda     #$2e
843a: 60           L843A           rts

843b: 38           L843B           sec
843c: e9 30                        sbc     #$30
843e: 90 16                        bcc     L8456
8440: c9 0a                        cmp     #$0a
8442: 60                           rts

8443: 20 06 83                     jsr     L8306
8446: 20 3b 84                     jsr     L843B
8449: 90 0a                        bcc     L8455
844b: e9 07                        sbc     #$07
844d: 90 07                        bcc     L8456
844f: c9 0a                        cmp     #$0a
8451: 90 03                        bcc     L8456
8453: c9 10                        cmp     #$10
8455: 60           L8455           rts

8456: 38           L8456           sec
8457: 60                           rts

8458: 20 03 87     L8458           jsr     L8703
845b: 38                           sec
845c: f0 24                        beq     L8482
845e: 08                           php
845f: 64 b9                        stz     $b9
8461: 80 14                        bra     L8477

8463: 20 3b 84     L8463           jsr     L843B
8466: b0 19                        bcs     L8481
8468: 85 b8                        sta     $b8
846a: a5 b9                        lda     $b9
846c: 0a                           asl     A
846d: 85 b9                        sta     $b9
846f: 0a                           asl     A
8470: 0a                           asl     A
8471: 65 b9                        adc     $b9
8473: 65 b8                        adc     $b8
8475: 85 b9                        sta     $b9
8477: 20 c5 ff     L8477           jsr     GSREAD
847a: 90 e7                        bcc     L8463
847c: a5 b9                        lda     $b9
847e: 28                           plp
847f: 18                           clc
8480: 60                           rts

8481: 28           L8481           plp
8482: 60           L8482           rts

8483: 20 fc 86                     jsr     L86FC
8486: 20 5d 8b                     jsr     L8B5D
8489: 20 51 94                     jsr     L9451
848c: a0 ff                        ldy     #$ff
848e: 84 a8                        sty     $a8
8490: c8                           iny
8491: 84 aa                        sty     $aa
8493: b9 00 c0     L8493           lda     $c000,Y
8496: c0 08                        cpy     #$08
8498: 90 03                        bcc     L849D
849a: b9 f8 c0                     lda     $c0f8,Y
849d: 20 a0 80     L849D           jsr     pchr
84a0: c8                           iny
84a1: c0 0c                        cpy     #$0c
84a3: d0 ee                        bne     L8493
84a5: 20 7f 80                     jsr     vstrng
84a8: 20 28                        .str    “ (”
84aa: ad 04 c1                     lda     $c104
84ad: 20 bb 80                     jsr     L80BB
84b0: 20 7f 80                     jsr     vstrng
84b3: 29 20 46 4d+                 .str    “) FM”,$0d,“Drive ”
84be: a5 cd                        lda     $cd
84c0: 20 c3 80                     jsr     L80C3
84c3: a0 0d                        ldy     #$0d
84c5: 20 a7 81                     jsr     yspace
84c8: 20 7f 80                     jsr     vstrng
84cb: 4f 70 74 69+                 .str    “Option ”

84d2: ad 06 c1                     lda     $c106
84d5: 20 be 81                     jsr     L81BE
84d8: 48                           pha
84d9: 20 c3 80                     jsr     L80C3
84dc: 20 7f 80                     jsr     vstrng
84df: 20 28                        .str    “ (”
84e1: a0 03                        ldy     #$03
84e3: 68                           pla
84e4: 0a                           asl     A
84e5: 0a                           asl     A
84e6: aa                           tax
84e7: bd d3 85     L84E7           lda     aoff,X
84ea: 20 a0 80                     jsr     pchr
84ed: e8                           inx
84ee: 88                           dey
84ef: 10 f6                        bpl     L84E7
84f1: 20 7f 80                     jsr     vstrng
84f4: 29 0d 44 69+                 .str    “)”,$0d,“Dir. :”
84fc: ad ca c2                     lda     $c2ca
84ff: 20 9b 80                     jsr     L809B
8502: ad c9 c2                     lda     $c2c9
8505: 20 a0 80                     jsr     pchr
8508: a0 0b                        ldy     #$0b
850a: 20 a7 81                     jsr     yspace
850d: 20 7f 80                     jsr     vstrng
8510: 4c 69 62 2e+                 .str    “Lib. :”
8516: ad cc c2                     lda     $c2cc
8519: 20 9b 80                     jsr     L809B
851c: ad cb c2                     lda     $c2cb
851f: 20 a0 80                     jsr     pchr
8522: 20 dd a7                     jsr     LA7DD
8525: a0 00                        ldy     #$00
8527: cc 05 c1     L8527           cpy     $c105
852a: b0 17                        bcs     L8543
852c: b9 0f c0                     lda     $c00f,Y
852f: 4d c9 c2                     eor     $c2c9
8532: 29 5f                        and     #$5f
8534: d0 08                        bne     L853E
8536: b9 0f c0                     lda     $c00f,Y
8539: 29 80                        and     #$80
853b: 99 0f c0                     sta     $c00f,Y
853e: 20 91 87     L853E           jsr     iny8
8541: 90 e4                        bcc     L8527
8543: a0 00        L8543           ldy     #$00
8545: 20 55 85                     jsr     L8555
8548: 90 16                        bcc     L8560
854a: a9 ff                        lda     #$ff
854c: 8d 82 c2                     sta     $c282
854f: 4c dd a7                     jmp     LA7DD

8552: 20 91 87     L8552           jsr     iny8
8555: cc 05 c1     L8555           cpy     $c105
8558: b0 05                        bcs     rts855F
855a: b9 08 c0                     lda     $c008,Y
855d: 30 f3                        bmi     L8552
855f: 60           rts855F         rts

8560: 84 ab        L8560           sty     $ab
8562: a2 00                        ldx     #$00
8564: b9 08 c0     L8564           lda     $c008,Y
8567: 20 06 83                     jsr     L8306
856a: 9d 60 c2                     sta     WKSP261_TransAddr-1,X
856d: c8                           iny
856e: e8                           inx
856f: e0 08                        cpx     #$08
8571: d0 f1                        bne     L8564
8573: 20 55 85     L8573           jsr     L8555
8576: b0 23                        bcs     L859B
8578: 38                           sec
8579: a2 06                        ldx     #$06
857b: b9 0e c0     L857B           lda     $c00e,Y
857e: 20 06 83                     jsr     L8306
8581: fd 60 c2                     sbc     WKSP261_TransAddr-1,X
8584: 88                           dey
8585: ca                           dex
8586: 10 f3                        bpl     L857B
8588: 20 92 87                     jsr     iny7
858b: b9 0f c0                     lda     $c00f,Y
858e: 20 06 83                     jsr     L8306
8591: ed 67 c2                     sbc     $c267
8594: 90 ca                        bcc     L8560
8596: 20 91 87                     jsr     iny8
8599: b0 d8                        bcs     L8573
859b: a4 ab        L859B           ldy     $ab
859d: b9 08 c0                     lda     $c008,Y
85a0: 09 80                        ora     #$80
85a2: 99 08 c0                     sta     $c008,Y
85a5: ad 67 c2                     lda     $c267
85a8: c5 aa                        cmp     $aa
85aa: f0 10                        beq     L85BC
85ac: a6 aa                        ldx     $aa
85ae: 85 aa                        sta     $aa
85b0: d0 0a                        bne     L85BC
85b2: 20 dd a7                     jsr     LA7DD
85b5: 20 dd a7     L85B5           jsr     LA7DD
85b8: a0 ff                        ldy     #$ff
85ba: d0 09                        bne     L85C5

85bc: a4 a8        L85BC           ldy     $a8
85be: d0 f5                        bne     L85B5
85c0: a0 05                        ldy     #$05
85c2: 20 a7 81                     jsr     yspace
85c5: c8           L85C5           iny
85c6: 84 a8                        sty     $a8
85c8: a4 ab                        ldy     $ab
85ca: 20 cf ad                     jsr     LADCF
85cd: 20 74 81                     jsr     prtnam
85d0: 4c 43 85                     jmp     L8543

85d3: 6f 66 66 00  aoff            .zstr   “off”
85d7: 4c 4f 41 44+ aLOADRUNEXEC    .zstr   “LOADRUN”
85df: 45 58 45 43                  .str    “EXEC”

85e3: b9 0e c1     L85E3           lda     $c10e,Y
85e6: 20 b0 81                     jsr     L81B0
85e9: 85 c2                        sta     $c2
85eb: 18                           clc
85ec: a9 ff                        lda     #$ff
85ee: 79 0c c1                     adc     $c10c,Y
85f1: b9 0f c1                     lda     $c10f,Y
85f4: 79 0d c1                     adc     $c10d,Y
85f7: 85 c3                        sta     $c3
85f9: b9 0e c1                     lda     $c10e,Y
85fc: 29 03                        and     #$03
85fe: 65 c2                        adc     $c2
8600: 85 c2                        sta     $c2
8602: 38           L8602           sec
8603: b9 07 c1                     lda     $c107,Y
8606: e5 c3                        sbc     $c3
8608: 48                           pha
8609: b9 06 c1                     lda     $c106,Y
860c: 29 03                        and     #$03
860e: e5 c2                        sbc     $c2
8610: aa                           tax
8611: a9 00                        lda     #$00
8613: c5 c0                        cmp     $c0
8615: 68                           pla
8616: e5 c1                        sbc     $c1
8618: 8a                           txa
8619: e5 c4                        sbc     $c4
861b: 60           ServNul         rts

861c: 41 43 43 45+ comTab          .str    “ACCESS”
8622: 89 bc                        .dbd2   cmd_access-1
8624: 32                           .dd1    $32
8625: 42 41 43 4b+                 .str    “BACKUP”
862b: a8 17                        .dbd2   cmd_backup-1
862d: 04                           .dd1    $04
862e: 43 4f 4d 50+                 .str    “COMPACT”
8635: a6 47                        .dbd2   cmd_compact-1
8637: 07                           .dd1    $07
8638: 43 4f 50 59                  .str    “COPY”
863c: a8 63                        .dbd2   cmd_copy-1
863e: 24                           .dd1    $24
863f: 44 45 53 54+                 .str    “DESTROY”
8646: 87 4a                        .dbd2   cmd_destroy-1
8648: 02                           .dd1    $02
8649: 44 49 52                     .str    “DIR”
864c: 89 17                        .dbd2   cmd_dir-1
864e: 06                           .dd1    $06
864f: 44 52 49 56+                 .str    “DRIVE”
8654: 87 a4                        .dbd2   cmd_drive-1
8656: 09                           .dd1    $09
8657: 45 4e 41 42+                 .str    “ENABLE”
865d: 8b 1d                        .dbd2   cmd_enable-1
865f: 00                           .dd1    $00
8660: 46 4f 52 4d                  .str    “FORM”
8664: a9 bd                        .dbd2   cmd_form-1
8666: ba                           .dd1    $ba
8667: 46 52 45 45                  .str    “FREE”
866b: ab f1                        .dbd2   cmd_free-1
866d: 07                           .dd1    $07
866e: 4c 49 42                     .str    “LIB”
8671: 89 1b                        .dbd2   cmd_lib-1
8673: 06                           .dd1    $06
8674: 4d 41 50                     .str    “MAP”
8677: ab f4                        .dbd2   cmd_map-1
8679: 07                           .dd1    $07
867a: 52 45 4e 41+                 .str    “RENAME”
8680: 8b 82                        .dbd2   cmd_rename-1
8682: 05                           .dd1    $05
8683: 54 49 54 4c+                 .str    “TITLE”
8688: 89 8d                        .dbd2   cmd_title-1
868a: 08                           .dd1    $08
868b: 56 45 52 49+                 .str    “VERIFY”
8691: a9 b9                        .dbd2   cmd_verify-1
8693: 0b                           .dd1    $0b
8694: 57 49 50 45                  .str    “WIPE”
8698: 87 06                        .dbd2   cmd_wipe-1
869a: 02                           .dd1    $02
869b: 88 2b                        .dbd2   cmd_run-1
869d: 44 49 53 43                  .str    “DISC”
86a1: a0 af                        .dbd2   cmd_disk-1
86a3: 00                           .dd1    $00
86a4: 44 49 53 4b                  .str    “DISK”
86a8: a0 af                        .dbd2   cmd_disk-1
86aa: 00                           .dd1    $00
86ab: 86 1a                        .dbd2   ServNul-1
86ad: 44 46 53                     .str    “DFS”
86b0: 9e d0                        .dbd2   cmd_dfs-1
86b2: 00                           .dd1    $00
86b3: 9f 08                        .dbd2   cmd_q-1

86b5: 20 fc 86                     jsr     L86FC
86b8: a2 fd                        ldx     #$fd
86ba: 98           L86BA           tya
86bb: 48                           pha
86bc: e8           L86BC           inx
86bd: e8                           inx
86be: 68                           pla
86bf: 48                           pha
86c0: a8                           tay
86c1: 20 03 87                     jsr     L8703
86c4: e8                           inx
86c5: bd 1c 86                     lda     comTab,X
86c8: 30 28                        bmi     L86F2
86ca: ca                           dex
86cb: 88                           dey
86cc: 86 bf                        stx     $bf
86ce: e8           L86CE           inx
86cf: c8                           iny
86d0: bd 1c 86                     lda     comTab,X
86d3: 30 16                        bmi     L86EB
86d5: 51 f2                        eor     ($f2),Y
86d7: 29 5f                        and     #$5f
86d9: f0 f3                        beq     L86CE
86db: ca                           dex
86dc: e8           L86DC           inx
86dd: bd 1c 86                     lda     comTab,X
86e0: 10 fa                        bpl     L86DC
86e2: b1 f2                        lda     ($f2),Y
86e4: c9 2e                        cmp     #$2e
86e6: d0 d4                        bne     L86BC
86e8: c8                           iny
86e9: b0 07                        bcs     L86F2
86eb: b1 f2        L86EB           lda     ($f2),Y
86ed: 20 2f 83                     jsr     L832F
86f0: 90 ca                        bcc     L86BC
86f2: 68           L86F2           pla
86f3: bd 1c 86                     lda     comTab,X
86f6: 48                           pha
86f7: bd 1d 86                     lda     comTab+1,X
86fa: 48                           pha
86fb: 60                           rts

86fc: 86 f2        L86FC           stx     $f2
86fe: 84 f3                        sty     $f3
8700: a0 00                        ldy     #$00
8702: 60                           rts

8703: 18           L8703           clc
8704: 4c c2 ff                     jmp     $ffc2

8707: 20 a7 a4     cmd_wipe        jsr     LA4A7
870a: 20 15 9f                     jsr     L9F15
870d: 20 1c 82                     jsr     L821C
8710: b9 0f c0     L8710           lda     $c00f,Y
8713: 30 1e                        bmi     L8733
8715: 20 74 81                     jsr     prtnam
8718: 20 e5 a7                     jsr     LA7E5
871b: d0 13                        bne     L8730
871d: a6 b6                        ldx     $b6
871f: 20 38 96                     jsr     L9638
8722: 86 b6                        stx     $b6
8724: 20 9a 87                     jsr     L879A
8727: 84 ab                        sty     $ab
8729: 20 2b 94                     jsr     L942B
872c: a5 ab                        lda     $ab
872e: 85 b6                        sta     $b6
8730: 20 dd a7     L8730           jsr     LA7DD
8733: 20 8a 82     L8733           jsr     L828A
8736: b0 d8                        bcs     L8710
8738: 60                           rts

8739: 20 9e a4                     jsr     LA49E
873c: 20 15 9f                     jsr     L9F15
873f: 20 1c 82                     jsr     L821C
8742: 20 3d 83                     jsr     L833D
8745: 20 12 83                     jsr     L8312
8748: 4c 2b 94                     jmp     L942B

874b: 20 19 a7     cmd_destroy     jsr     LA719
874e: 20 a7 a4                     jsr     LA4A7
8751: 20 15 9f                     jsr     L9F15
8754: 20 1c 82                     jsr     L821C
8757: b9 0f c0     L8757           lda     $c00f,Y
875a: 30 06                        bmi     L8762
875c: 20 74 81                     jsr     prtnam
875f: 20 dd a7                     jsr     LA7DD
8762: 20 8a 82     L8762           jsr     L828A
8765: b0 f0                        bcs     L8757
8767: 20 ed a7                     jsr     LA7ED
876a: f0 03                        beq     L876F
876c: 4c dd a7                     jmp     LA7DD

876f: 20 38 96     L876F           jsr     L9638
8772: 20 8e 82                     jsr     lookup
8775: b9 0f c0     L8775           lda     $c00f,Y
8778: 30 03                        bmi     L877D
877a: 20 9a 87                     jsr     L879A
877d: 20 8a 82     L877D           jsr     L828A
8780: b0 f3                        bcs     L8775
8782: 20 2b 94                     jsr     L942B
8785: 20 7f 80                     jsr     vstrng
8788: 0d 44 65                     ora     $6544
878b: 6c 65 74                     jmp     ($7465)

878e: 65                           .dd1    $65
878f: 64                           .dd1    $64
8790: 0d                           .dd1    $0d

8791: c8           iny8            iny
8792: c8           iny7            iny
8793: c8                           iny
8794: c8                           iny
8795: c8                           iny
8796: c8                           iny
8797: c8                           iny
8798: c8                           iny
8799: 60                           rts

879a: 20 12 83     L879A           jsr     L8312
879d: a4 b6                        ldy     $b6
879f: 20 ba 82                     jsr     L82BA
87a2: 84 b6                        sty     $b6
87a4: 60                           rts

87a5: 20 15 9f     cmd_drive       jsr     L9F15
87a8: 20 62 8b                     jsr     L8B62
87ab: 8d ca c2                     sta     $c2ca
87ae: 20 58 84                     jsr     L8458
87b1: f0 19                        beq     L87CC
87b3: c9 28                        cmp     #$28
87b5: f0 08                        beq     L87BF
87b7: c9 50                        cmp     #$50
87b9: 18                           clc
87ba: f0 03                        beq     L87BF
87bc: 4c 1a 9f                     jmp     L9F1A

87bf: 08           L87BF           php
87c0: ae ca c2                     ldx     $c2ca
87c3: bd de c2                     lda     $c2de,X
87c6: 2a                           rol     A
87c7: 28                           plp
87c8: 6a                           ror     A
87c9: 9d de c2                     sta     $c2de,X
87cc: 60           L87CC           rts

87cd: 29 03        L87CD           and     #$03
87cf: 85 cd                        sta     $cd
87d1: 60                           rts

87d2: 20 21 82                     jsr     L8221
87d5: 20 7d a5                     jsr     LA57D
87d8: 20 8e 83                     jsr     L838E
87db: a9 80                        lda     #$80
87dd: 8d 96 c2     L87DD           sta     $c296
87e0: 84 ba                        sty     $ba
87e2: a2 00                        ldx     #$00
87e4: a5 be                        lda     $be
87e6: d0 06                        bne     L87EE
87e8: c8                           iny
87e9: c8                           iny
87ea: a2 02                        ldx     #$02
87ec: d0 08                        bne     L87F6

87ee: b9 0e c1     L87EE           lda     $c10e,Y
87f1: 85 c2                        sta     $c2
87f3: 20 24 8b                     jsr     L8B24
87f6: b9 08 c1     L87F6           lda     $c108,Y
87f9: 95 bc                        sta     $bc,X
87fb: c8                           iny
87fc: e8                           inx
87fd: e0 08                        cpx     #$08
87ff: d0 f5                        bne     L87F6
8801: 20 3b 8b                     jsr     L8B3B
8804: a4 ba                        ldy     $ba
8806: 20 3d 83                     jsr     L833D
8809: 4c 1e 88                     jmp     L881E

880c: a9 80        L880C           lda     #$80
880e: d0 0b                        bne     L881B

8810: 20 4e 8a                     jsr     L8A4E
8813: 20 7d a5                     jsr     LA57D
8816: 20 8e 83                     jsr     L838E
8819: a9 a0        L8819           lda     #$a0
881b: 8d 96 c2     L881B           sta     $c296
881e: 64 b2        L881E           stz     $b2
8820: 20 c9 81     L8820           jsr     L81C9
8823: 20 8c 94                     jsr     L948C
8826: a9 01                        lda     #$01
8828: 60                           rts

8829: 20 fc 86                     jsr     L86FC
882c: 20 4b 88     cmd_run         jsr     L884B
882f: b0 4e                        bcs     L887F
8831: a9 0b                        lda     #$0b
8833: 4c 20 80                     jmp     jmpIndFSCV

8836: 20 fc 86                     jsr     L86FC
8839: 20 4b 88                     jsr     L884B
883c: b0 41                        bcs     L887F
883e: 20 2e 80                     jsr     brk_with_prefix_bad
8841: fe 63 6f                     inc     $6f63,X
8844: 6d 6d 61                     adc     $616d
8847: 6e 64 20                     ror     $2064
884a: 00                           brk

884b: 20 0b 89     L884B           jsr     L890B
884e: 8c da c2                     sty     $c2da
8851: 20 f3 80                     jsr     L80F3
8854: 8c d9 c2                     sty     $c2d9
8857: 20 70 82                     jsr     L8270
885a: b0 22                        bcs     L887E
885c: ac da c2                     ldy     $c2da
885f: ad cb c2                     lda     $c2cb
8862: 85 cc                        sta     $cc
8864: ad cc c2                     lda     $c2cc
8867: 20 cd 87                     jsr     L87CD
886a: 20 f6 80                     jsr     L80F6
886d: 20 70 82                     jsr     L8270
8870: b0 0c                        bcs     L887E
8872: a5 f2                        lda     $f2
8874: 6d da c2                     adc     $c2da
8877: aa                           tax
8878: a4 f3                        ldy     $f3
887a: 90 01                        bcc     L887D
887c: c8                           iny
887d: 18           L887D           clc
887e: 60           L887E           rts

887f: b9 0e c1     L887F           lda     $c10e,Y
8882: 20 ae 81                     jsr     isoexe
8885: c9 03                        cmp     #$03
8887: d0 44                        bne     L88CD
8889: b9 0a c1                     lda     $c10a,Y
888c: 39 0b c1                     and     $c10b,Y
888f: c9 ff                        cmp     #$ff
8891: d0 3a                        bne     L88CD
8893: a2 06                        ldx     #$06
8895: bd 00 c2     L8895           lda     $c200,X
8898: 9d 07 c2                     sta     $c207,X
889b: ca                           dex
889c: 10 f7                        bpl     L8895
889e: a9 0d                        lda     #$0d
88a0: 8d 0e c2                     sta     $c20e
88a3: a9 45                        lda     #$45
88a5: 8d 00 c2                     sta     $c200
88a8: a9 2e                        lda     #$2e
88aa: 8d 01 c2                     sta     $c201
88ad: a9 3a                        lda     #$3a
88af: 8d 02 c2                     sta     $c202
88b2: a5 cd                        lda     $cd
88b4: 09 30                        ora     #$30
88b6: 8d 03 c2                     sta     $c203
88b9: a9 2e                        lda     #$2e
88bb: 8d 04 c2                     sta     $c204
88be: 8d 06 c2                     sta     $c206
88c1: a5 cc                        lda     $cc
88c3: 8d 05 c2                     sta     $c205
88c6: a2 00                        ldx     #$00
88c8: a0 c2                        ldy     #$c2
88ca: 4c f7 ff                     jmp     $fff7

88cd: a9 81        L88CD           lda     #$81
88cf: 20 dd 87                     jsr     L87DD
88d2: 18                           clc
88d3: ad d9 c2                     lda     $c2d9
88d6: a8                           tay
88d7: 65 f2                        adc     $f2
88d9: 8d d9 c2                     sta     $c2d9
88dc: a5 f3                        lda     $f3
88de: 69 00                        adc     #$00
88e0: 8d da c2                     sta     $c2da
88e3: ad 76 c2                     lda     $c276
88e6: 2d 77 c2                     and     $c277
88e9: 0d d6 c2                     ora     WKSP2D6_TubePresentIf0
88ec: c9 ff                        cmp     #$ff
88ee: f0 16                        beq     L8906
88f0: a5 be                        lda     $be
88f2: 8d 74 c2                     sta     $c274
88f5: a5 bf                        lda     $bf
88f7: 8d 75 c2                     sta     $c275
88fa: 20 94 8f                     jsr     TUBE_CLAIM
88fd: a2 74                        ldx     #$74
88ff: a0 c2                        ldy     #$c2
8901: a9 04                        lda     #$04
8903: 4c 06 04                     jmp     TubeCode

8906: a9 01        L8906           lda     #$01
8908: 6c be 00                     jmp     ($00be)

890b: a9 ff        L890B           lda     #$ff
890d: 85 be                        sta     $be
890f: a5 f2                        lda     $f2
8911: 85 ba                        sta     $ba
8913: a5 f3                        lda     $f3
8915: 85 bb                        sta     $bb
8917: 60                           rts

8918: a2 00        cmd_dir         ldx     #$00
891a: f0 02                        beq     L891E

891c: a2 02        cmd_lib         ldx     #$02
891e: 20 50 89     L891E           jsr     L8950
8921: 9d ca c2                     sta     $c2ca,X
8924: a5 cc                        lda     $cc
8926: 9d c9 c2                     sta     $c2c9,X
8929: 60                           rts

892a: 20 eb 83     L892A           jsr     savita
892d: a5 b0                        lda     $b0
892f: 48                           pha
8930: a5 b1                        lda     $b1
8932: 48                           pha
8933: 20 ae a5                     jsr     LA5AE
8936: a0 00                        ldy     #$00
8938: c0 c0        L8938           cpy     #$c0
893a: 90 05                        bcc     L8941
893c: b9 00 c2                     lda     $c200,Y
893f: b0 03                        bcs     L8944

8941: b9 00 c3     L8941           lda     $c300,Y
8944: 91 b0        L8944           sta     ($b0),Y
8946: c8                           iny
8947: d0 ef                        bne     L8938
8949: 68                           pla
894a: 85 b1                        sta     $b1
894c: 68                           pla
894d: 85 b0                        sta     $b0
894f: 60                           rts

8950: ad c9 c2     L8950           lda     $c2c9
8953: 85 cc                        sta     $cc
8955: 20 03 87                     jsr     L8703
8958: d0 07                        bne     L8961
895a: a9 00                        lda     #$00
895c: 20 cd 87                     jsr     L87CD
895f: f0 2a                        beq     L898B
8961: ad ca c2     L8961           lda     $c2ca
8964: 20 cd 87                     jsr     L87CD
8967: 20 49 81     L8967           jsr     L8149
896a: b0 10                        bcs     L897C
896c: c9 3a                        cmp     #$3a
896e: d0 14                        bne     L8984
8970: 20 62 8b                     jsr     L8B62
8973: 20 49 81                     jsr     L8149
8976: b0 13                        bcs     L898B
8978: c9 2e                        cmp     #$2e
897a: f0 eb                        beq     L8967
897c: 20 2e 80     L897C           jsr     brk_with_prefix_bad
897f: ce 64 69                     dec     $6964
8982: 72 00                        adc     ($00)
8984: 85 cc        L8984           sta     $cc
8986: 20 49 81                     jsr     L8149
8989: 90 f1                        bcc     L897C
898b: a5 cd        L898B           lda     $cd
898d: 60                           rts

898e: 20 15 9f     cmd_title       jsr     L9F15
8991: 20 52 8b                     jsr     L8B52
8994: 20 88 83                     jsr     L8388
8997: a2 0b                        ldx     #$0b
8999: a9 00                        lda     #$00
899b: 20 b1 89     L899B           jsr     L89B1
899e: ca                           dex
899f: 10                           bpl ▼   L899B
89a0: fa                           plx
89a1: e8           L89A1           inx
89a2: 20 49 81                     jsr     L8149
89a5: b0 07                        bcs     L89AE
89a7: 20 b1 89                     jsr     L89B1
89aa: e0 0b                        cpx     #$0b
89ac: 90 f3                        bcc     L89A1
89ae: 4c 2b 94     L89AE           jmp     L942B

89b1: e0 08        L89B1           cpx     #$08
89b3: 90 04                        bcc     L89B9
89b5: 9d f8 c0                     sta     $c0f8,X
89b8: 60                           rts

89b9: 9d 00 c0     L89B9           sta     $c000,X
89bc: 60                           rts

89bd: 20 a7 a4     cmd_access      jsr     LA4A7
89c0: 20 15 9f                     jsr     L9F15
89c3: 20 ed 80                     jsr     L80ED
89c6: a2 00                        ldx     #$00
89c8: 20 03 87                     jsr     L8703
89cb: d0 23                        bne     L89F0
89cd: 86 aa        L89CD           stx     $aa
89cf: 20 8e 82                     jsr     lookup
89d2: b0 03                        bcs     L89D7
89d4: 4c 29 82                     jmp     brkNotFound

89d7: 20 5e a5     L89D7           jsr     LA55E
89da: b9 0f c0                     lda     $c00f,Y
89dd: 29 7f                        and     #$7f
89df: 05 aa                        ora     $aa
89e1: 99 0f c0                     sta     $c00f,Y
89e4: 20 3d 83                     jsr     L833D
89e7: 20 8a 82                     jsr     L828A
89ea: b0 eb                        bcs     L89D7
89ec: 90 c0                        bcc     L89AE

89ee: a2 80        L89EE           ldx     #$80
89f0: 20 49 81     L89F0           jsr     L8149
89f3: b0 d8                        bcs     L89CD
89f5: 29 5f                        and     #$5f
89f7: c9 4c                        cmp     #$4c
89f9: f0 f3                        beq     L89EE
89fb: 20 2e 80                     jsr     brk_with_prefix_bad
89fe: cf                           .dd1    $cf
89ff: 61 74 74 72+                 .zstr   “attribute”
8a09: 20 eb 83                     jsr     savita
8a0c: 8a                           txa
8a0d: c9 04                        cmp     #$04
8a0f: f0 1a                        beq     L8A2B
8a11: c9 02                        cmp     #$02
8a13: 90 0b                        bcc     L8A20
8a15: 20 2e 80                     jsr     brk_with_prefix_bad
8a18: cb                           .dd1    $cb
8a19: 6f 70 74 69+                 .str    “option”
8a1f: 00                           .dd1    $00

8a20: a2 ff        L8A20           ldx     #$ff
8a22: 98                           tya
8a23: f0 02                        beq     L8A27
8a25: a2 00                        ldx     #$00
8a27: 8e c6 c2     L8A27           stx     $c2c6
8a2a: 60                           rts

8a2b: 98           L8A2B           tya
8a2c: 48                           pha
8a2d: 20 52 8b                     jsr     L8B52
8a30: 20 51 94                     jsr     L9451
8a33: 68                           pla
8a34: 20 c4 81                     jsr     L81C4
8a37: 4d 06 c1                     eor     $c106
8a3a: 29 30                        and     #$30
8a3c: 4d 06 c1                     eor     $c106
8a3f: 8d 06 c1                     sta     $c106
8a42: 4c 2b 94                     jmp     L942B

8a45: 20 23 80     L8A45           jsr     brk_with_prefix_disc
8a48: c6 66                        dec     $66
8a4a: 75 6c                        adc     $6c,X
8a4c: 6c 00                        jmp ▼   ($2000)

8a4e: 20 f3 80     L8A4E           jsr     L80F3
8a51: 20 8e 82                     jsr     lookup
8a54: 90 03                        bcc     L8A59
8a56: 20 12 83                     jsr     L8312
8a59: a5 c0        L8A59           lda     $c0
8a5b: 48                           pha
8a5c: a5 c1                        lda     $c1
8a5e: 48                           pha
8a5f: 38                           sec
8a60: a5 c2                        lda     $c2
8a62: e5 c0                        sbc     $c0
8a64: 85 c0                        sta     $c0
8a66: a5 c3                        lda     $c3
8a68: e5 c1                        sbc     $c1
8a6a: 85 c1                        sta     $c1
8a6c: ad 7a c2                     lda     $c27a
8a6f: ed 78 c2                     sbc     $c278
8a72: 85 c4                        sta     $c4
8a74: 20 8a 8a                     jsr     L8A8A
8a77: ad 79 c2                     lda     $c279
8a7a: 8d 75 c2                     sta     $c275
8a7d: ad 78 c2                     lda     $c278
8a80: 8d 74 c2                     sta     $c274
8a83: 68                           pla
8a84: 85 bd                        sta     $bd
8a86: 68                           pla
8a87: 85 bc                        sta     $bc
8a89: 60                           rts

8a8a: a9 00        L8A8A           lda     #$00
8a8c: 85 c2                        sta     $c2
8a8e: a9 02                        lda     #$02
8a90: 85 c3                        sta     $c3
8a92: ac 05 c1                     ldy     $c105
8a95: c0 f8                        cpy     #$f8
8a97: b0 56                        bcs     L8AEF
8a99: 20 02 86                     jsr     L8602
8a9c: 4c a7 8a                     jmp     L8AA7

8a9f: f0 a4        L8A9F           beq     L8A45
8aa1: 20 ba 82                     jsr     L82BA
8aa4: 20 e3 85                     jsr     L85E3
8aa7: 98           L8AA7           tya
8aa8: 90 f5                        bcc     L8A9F
8aaa: 84 b0                        sty     $b0
8aac: ac 05 c1                     ldy     $c105
8aaf: c4 b0        L8AAF           cpy     $b0
8ab1: f0 0f                        beq     L8AC2
8ab3: b9 07 c0                     lda     $c007,Y
8ab6: 99 0f c0                     sta     $c00f,Y
8ab9: b9 07 c1                     lda     $c107,Y
8abc: 99 0f c1                     sta     $c10f,Y
8abf: 88                           dey
8ac0: b0 ed                        bcs     L8AAF
8ac2: a2 00        L8AC2           ldx     #$00
8ac4: 20 fc 8a                     jsr     L8AFC
8ac7: b5 c5        L8AC7           lda     $c5,X
8ac9: 99 08 c0                     sta     $c008,Y
8acc: c8                           iny
8acd: e8                           inx
8ace: e0 08                        cpx     #$08
8ad0: d0 f5                        bne     L8AC7
8ad2: b5 bb        L8AD2           lda     $bb,X
8ad4: 88                           dey
8ad5: 99 08 c1                     sta     $c108,Y
8ad8: ca                           dex
8ad9: d0 f7                        bne     L8AD2
8adb: 20 3d 83                     jsr     L833D
8ade: 98                           tya
8adf: 48                           pha
8ae0: ac 05 c1                     ldy     $c105
8ae3: 20 91 87                     jsr     iny8
8ae6: 8c 05 c1                     sty     $c105
8ae9: 20 2b 94                     jsr     L942B
8aec: 68                           pla
8aed: a8                           tay
8aee: 60                           rts

8aef: 20 38 80     L8AEF           jsr     estrng
8af2: be 43 61                     ldx     $6143,Y
8af5: 74 20                        stz     $20,X
8af7: 66 75                        ror     $75
8af9: 6c 6c 00                     jmp     ($006c)

8afc: ad 76 c2     L8AFC           lda     $c276
8aff: 29 03                        and     #$03
8b01: 0a                           asl     A
8b02: 0a                           asl     A
8b03: 45 c4                        eor     $c4
8b05: 29 fc                        and     #$fc
8b07: 45 c4                        eor     $c4
8b09: 0a                           asl     A
8b0a: 0a                           asl     A
8b0b: 4d 74 c2                     eor     $c274
8b0e: 29 fc                        and     #$fc
8b10: 4d 74 c2                     eor     $c274
8b13: 0a                           asl     A
8b14: 0a                           asl     A
8b15: 45 c2                        eor     $c2
8b17: 29 fc                        and     #$fc
8b19: 45 c2                        eor     $c2
8b1b: 85 c2                        sta     $c2
8b1d: 60                           rts

8b1e: a9 01        cmd_enable      lda     #$01
8b20: 8d c7 c2                     sta     $c2c7
8b23: 60                           rts

8b24: a9 00        L8B24           lda     #$00
8b26: 8d 75 c2                     sta     $c275
8b29: a5 c2                        lda     $c2
8b2b: 20 b6 81                     jsr     L81B6
8b2e: c9 03                        cmp     #$03
8b30: d0 05                        bne     L8B37
8b32: a9 ff                        lda     #$ff
8b34: 8d 75 c2                     sta     $c275
8b37: 8d 74 c2     L8B37           sta     $c274
8b3a: 60                           rts

8b3b: a9 00        L8B3B           lda     #$00
8b3d: 8d 77 c2                     sta     $c277
8b40: a5 c2                        lda     $c2
8b42: 20 ae 81                     jsr     isoexe
8b45: c9 03                        cmp     #$03
8b47: d0 05                        bne     L8B4E
8b49: a9 ff                        lda     #$ff
8b4b: 8d 77 c2                     sta     $c277
8b4e: 8d 76 c2     L8B4E           sta     $c276
8b51: 60                           rts

8b52: ad c9 c2     L8B52           lda     $c2c9
8b55: 85 cc                        sta     $cc
8b57: ad ca c2     L8B57           lda     $c2ca
8b5a: 4c cd 87                     jmp     L87CD

8b5d: 20 03 87     L8B5D           jsr     L8703
8b60: f0 f5                        beq     L8B57
8b62: 20 49 81     L8B62           jsr     L8149
8b65: b0 12                        bcs     L8B79
8b67: c9 3a                        cmp     #$3a
8b69: f0 f7                        beq     L8B62
8b6b: 38                           sec
8b6c: e9 30                        sbc     #$30
8b6e: 90 09                        bcc     L8B79
8b70: c9 04                        cmp     #$04
8b72: b0 05                        bcs     L8B79
8b74: 20 cd 87                     jsr     L87CD
8b77: 18                           clc
8b78: 60                           rts

8b79: 20 2e 80     L8B79           jsr     brk_with_prefix_bad
8b7c: cd 64 72                     cmp     $7264
8b7f: 69 76                        adc     #$76
8b81: 65 00                        adc     $00
8b83: 20 9e a4     cmd_rename      jsr     LA49E
8b86: 20 15 9f                     jsr     L9F15
8b89: 20 ed 80                     jsr     L80ED
8b8c: 98                           tya
8b8d: 48                           pha
8b8e: 20 24 82                     jsr     L8224
8b91: 20 5b a5                     jsr     LA55B
8b94: 84 c4                        sty     $c4
8b96: 68                           pla
8b97: a8                           tay
8b98: 20 15 9f                     jsr     L9F15
8b9b: a5 cd                        lda     $cd
8b9d: 48                           pha
8b9e: 20 ed 80                     jsr     L80ED
8ba1: 68                           pla
8ba2: c5 cd                        cmp     $cd
8ba4: d0 d3                        bne     L8B79
8ba6: 20 8e 82                     jsr     lookup
8ba9: 90 0f                        bcc     L8BBA
8bab: c4 c4                        cpy     $c4
8bad: f0 0b                        beq     L8BBA
8baf: 20 38 80                     jsr     estrng
8bb2: c4 45                        cpy     $45
8bb4: 78                           sei
8bb5: 69 73                        adc     #$73
8bb7: 74 73                        stz     $73,X
8bb9: 00                           brk

8bba: a4 c4        L8BBA           ldy     $c4
8bbc: 20 91 87                     jsr     iny8
8bbf: a2 07                        ldx     #$07
8bc1: b5 c5        L8BC1           lda     $c5,X
8bc3: 99 07 c0                     sta     $c007,Y
8bc6: 88                           dey
8bc7: ca                           dex
8bc8: 10 f7                        bpl     L8BC1
8bca: 4c 2b 94                     jmp     L942B

8bcd: a9 01        L8BCD           lda     #$01
8bcf: 85 b2                        sta     $b2
8bd1: 58           L8BD1           cli
8bd2: 86 b0                        stx     $b0
8bd4: 84 b1                        sty     $b1
8bd6: d8                           cld
8bd7: 20 3a 8c                     jsr     L8C3A
8bda: a5 a2                        lda     $a2
8bdc: d0 09                        bne     L8BE7
8bde: a0 05                        ldy     #$05
8be0: b1 b0                        lda     ($b0),Y
8be2: f0 03                        beq     L8BE7
8be4: 20 e9 8c                     jsr     L8CE9
8be7: a0 05        L8BE7           ldy     #$05
8be9: b1 b0                        lda     ($b0),Y
8beb: 18                           clc
8bec: 69 07                        adc     #$07
8bee: a8                           tay
8bef: a5 a2                        lda     $a2
8bf1: 20 2b 8c                     jsr     L8C2B
8bf4: 91 b0                        sta     ($b0),Y
8bf6: a6 a7                        ldx     $a7
8bf8: e0 80                        cpx     #$80
8bfa: d0 07                        bne     L8C03
8bfc: ad 28 fe                     lda     fdccmd
8bff: 29 20                        and     #$20
8c01: 11 b0                        ora     ($b0),Y
8c03: 48           L8C03           pha
8c04: 29 df                        and     #$df
8c06: c9 18                        cmp     #$18
8c08: d0 05                        bne     L8C0F
8c0a: a9 ff                        lda     #$ff
8c0c: 8d 87 c2                     sta     $c287
8c0f: a5 cd        L8C0F           lda     $cd
8c11: 29 01                        and     #$01
8c13: a8                           tay
8c14: a5 ce                        lda     $ce
8c16: 99 88 c2                     sta     $c288,Y
8c19: 20 42 8f                     jsr     L8F42
8c1c: 24 a1                        bit     $a1
8c1e: 10 03                        bpl     L8C23
8c20: 20 a3 8f                     jsr     L8FA3
8c23: 20 87 8f     L8C23           jsr     L8F87
8c26: ad 2b fe                     lda     fdcdat
8c29: 68                           pla
8c2a: 60                           rts

8c2b: a2 05        L8C2B           ldx     #$05
8c2d: dd 7e 91     L8C2D           cmp     L917E,X
8c30: f0 04                        beq     L8C36
8c32: ca                           dex
8c33: 10 f8                        bpl     L8C2D
8c35: 60                           rts

8c36: bd 84 91     L8C36           lda     L9184,X
8c39: 60                           rts

8c3a: 20 67 8f     L8C3A           jsr     L8F67
8c3d: 20 ab 8f                     jsr     L8FAB
8c40: 64 a1                        stz     $a1
8c42: a0 09                        ldy     #$09
8c44: b1 b0        L8C44           lda     ($b0),Y
8c46: 99 aa 00                     sta     $00aa,Y
8c49: c8                           iny
8c4a: c0 0c                        cpy     #$0c
8c4c: d0 f6                        bne     L8C44
8c4e: a0 06                        ldy     #$06
8c50: b1 b0                        lda     ($b0),Y
8c52: 29 f0                        and     #$f0
8c54: c9 a0                        cmp     #$a0
8c56: f0 02                        beq     L8C5A
8c58: c9 f0                        cmp     #$f0
8c5a: 66 a1        L8C5A           ror     $a1
8c5c: a0 03                        ldy     #$03
8c5e: b1 b0                        lda     ($b0),Y
8c60: c8                           iny
8c61: 31 b0                        and     ($b0),Y
8c63: c9 ff                        cmp     #$ff
8c65: 18                           clc
8c66: f0 1d                        beq     L8C85
8c68: 20 57 8f                     jsr     L8F57
8c6b: 18                           clc
8c6c: 30 17                        bmi     L8C85
8c6e: 20 94 8f                     jsr     TUBE_CLAIM
8c71: a5 a1                        lda     $a1
8c73: 2a                           rol     A
8c74: 2a                           rol     A
8c75: 29 01                        and     #$01
8c77: 49 01                        eor     #$01
8c79: a6 b0                        ldx     $b0
8c7b: a4 b1                        ldy     $b1
8c7d: e8                           inx
8c7e: d0 01                        bne     L8C81
8c80: c8                           iny
8c81: 20 06 04     L8C81           jsr     TubeCode
8c84: 38                           sec
8c85: 66 a1        L8C85           ror     $a1
8c87: 20 b8 8f                     jsr     L8FB8
8c8a: b2 b0                        lda     ($b0)
8c8c: 30 04                        bmi     L8C92
8c8e: 29 0f                        and     #$0f
8c90: 85 cd                        sta     $cd
8c92: a5 cd        L8C92           lda     $cd
8c94: 29 03                        and     #$03
8c96: aa                           tax
8c97: bd de c2                     lda     $c2de,X
8c9a: 8d 8a c2                     sta     $c28a
8c9d: a5 cd                        lda     $cd
8c9f: a0 0a                        ldy     #$0a
8ca1: 29 08                        and     #$08
8ca3: f0 02                        beq     L8CA7
8ca5: a0 10                        ldy     #$10
8ca7: 84 a3        L8CA7           sty     $a3
8ca9: 5d 60 91                     eor     tblDrvCtlQ,X
8cac: 8d 24 fe                     sta     $fe24
8caf: 4a                           lsr     A
8cb0: ae 88 c2                     ldx     $c288
8cb3: b0 03                        bcs     L8CB8
8cb5: ae 89 c2                     ldx     $c289
8cb8: 64 a2        L8CB8           stz     $a2
8cba: ad 87 c2                     lda     $c287
8cbd: 2c 87 c2                     bit     $c287
8cc0: 90 09                        bcc     L8CCB
8cc2: 10 18                        bpl     L8CDC
8cc4: 9c 88 c2                     stz     $c288
8cc7: 29 7f                        and     #$7f
8cc9: 10 07                        bpl     L8CD2

8ccb: 50 0f        L8CCB           bvc     L8CDC
8ccd: 9c 89 c2                     stz     $c289
8cd0: 29 bf                        and     #$bf
8cd2: 8d 87 c2     L8CD2           sta     $c287
8cd5: a9 00                        lda     #$00
8cd7: 20 e0 8d                     jsr     L8DE0
8cda: a2 00                        ldx     #$00
8cdc: 8a           L8CDC           txa
8cdd: 85 ce                        sta     $ce
8cdf: 20 42 8f                     jsr     L8F42
8ce2: 60           L8CE2           rts

8ce3: 4c c7 8e     L8CE3           jmp     L8EC7

8ce6: 4c e0 8d     L8CE6           jmp     L8DE0

8ce9: 20 17 8f     L8CE9           jsr     L8F17
8cec: d0 f4                        bne     L8CE2
8cee: a0 06                        ldy     #$06
8cf0: b1 b0                        lda     ($b0),Y
8cf2: c9 10                        cmp     #$10
8cf4: f0 ec                        beq     L8CE2
8cf6: c9 c0                        cmp     #$c0
8cf8: f0 e9                        beq     L8CE3
8cfa: c9 e0                        cmp     #$e0
8cfc: b0 e8                        bcs     L8CE6
8cfe: a0 08                        ldy     #$08
8d00: b1 b0                        lda     ($b0),Y
8d02: 46 b2                        lsr     $b2
8d04: b0 5c                        bcs     L8D62
8d06: a6 b5                        ldx     $b5
8d08: f0 06                        beq     L8D10
8d0a: e6 b3                        inc     $b3
8d0c: d0 02                        bne     L8D10
8d0e: e6 b4                        inc     $b4
8d10: 20 3e 91     L8D10           jsr     L913E
8d13: 85 cf                        sta     $cf
8d15: e5 a3                        sbc     $a3
8d17: 49 ff                        eor     #$ff
8d19: 1a                           inc     A
8d1a: 85 a5                        sta     $a5
8d1c: a5 b4                        lda     $b4
8d1e: d0 24                        bne     L8D44
8d20: a5 b3                        lda     $b3
8d22: f0 3d                        beq     L8D61
8d24: c5 a5                        cmp     $a5
8d26: f0 02                        beq     L8D2A
8d28: b0 1a                        bcs     L8D44
8d2a: 85 a5        L8D2A           sta     $a5
8d2c: a6 b5                        ldx     $b5
8d2e: f0 14                        beq     L8D44
8d30: 86 a6                        stx     $a6
8d32: 66 a1                        ror     $a1
8d34: 38                           sec
8d35: 26 a1                        rol     $a1
8d37: c9 01                        cmp     #$01
8d39: d0 09                        bne     L8D44
8d3b: ad 22 0d                     lda     intnmi+34
8d3e: ae 24 0d                     ldx     intnmi+36
8d41: 9d 00 0d                     sta     intnmi,X
8d44: a5 b3        L8D44           lda     $b3
8d46: 38                           sec
8d47: e5 a5                        sbc     $a5
8d49: 85 b3                        sta     $b3
8d4b: a5 b4                        lda     $b4
8d4d: e9 00                        sbc     #$00
8d4f: 85 b4                        sta     $b4
8d51: 20 dc 8d                     jsr     L8DDC
8d54: d0 0b                        bne     L8D61
8d56: a5 b3                        lda     $b3
8d58: 05 b4                        ora     $b4
8d5a: f0 05                        beq     L8D61
8d5c: 20 e4 8e                     jsr     L8EE4
8d5f: f0 af                        beq     L8D10
8d61: 60           L8D61           rts

8d62: 20 3e 91     L8D62           jsr     L913E
8d65: 85 cf                        sta     $cf
8d67: a0 09                        ldy     #$09
8d69: b1 b0                        lda     ($b0),Y
8d6b: 29 1f                        and     #$1f
8d6d: f0 f2                        beq     L8D61
8d6f: 85 a5                        sta     $a5
8d71: 24 a1                        bit     $a1
8d73: 70 67                        bvs     L8DDC
8d75: 2c 8a c2                     bit     $c28a
8d78: 50 62                        bvc     L8DDC
8d7a: a2 33                        ldx     #$33
8d7c: bd 60 0d     L8D7C           lda     intnmi+96,X
8d7f: 9d 00 c2                     sta     $c200,X
8d82: ca                           dex
8d83: 10 f7                        bpl     L8D7C
8d85: 20 96 8d                     jsr     L8D96
8d88: a2 33                        ldx     #$33
8d8a: bd 00 c2     L8D8A           lda     $c200,X
8d8d: 9d 60 0d                     sta     intnmi+96,X
8d90: ca                           dex
8d91: 10 f7                        bpl     L8D8A
8d93: a5 a2                        lda     $a2
8d95: 60                           rts

8d96: 64 b4        L8D96           stz     $b4
8d98: b1 b0                        lda     ($b0),Y
8d9a: 29 e0                        and     #$e0
8d9c: d0 02                        bne     L8DA0
8d9e: a9 10                        lda     #$10
8da0: 0a           L8DA0           asl     A
8da1: 26 b4                        rol     $b4
8da3: 0a                           asl     A
8da4: 26 b4                        rol     $b4
8da6: 0a                           asl     A
8da7: 26 b4                        rol     $b4
8da9: 85 b3                        sta     $b3
8dab: aa                           tax
8dac: f0 02                        beq     L8DB0
8dae: e6 b4                        inc     $b4
8db0: 20 81 90     L8DB0           jsr     L9081
8db3: a9 14                        lda     #$14
8db5: 85 b7                        sta     $b7
8db7: a9 e0        L8DB7           lda     #$e0
8db9: 85 a2                        sta     $a2
8dbb: 8d 28 fe                     sta     fdccmd
8dbe: a5 a2        L8DBE           lda     $a2
8dc0: 30 fc                        bmi     L8DBE
8dc2: d0 17                        bne     L8DDB
8dc4: a5 a5                        lda     $a5
8dc6: f0 09                        beq     L8DD1
8dc8: c6 b7                        dec     $b7
8dca: d0 eb                        bne     L8DB7
8dcc: a9 10                        lda     #$10
8dce: 85 a2                        sta     $a2
8dd0: 60                           rts

8dd1: a5 b6        L8DD1           lda     $b6
8dd3: 49 fb                        eor     #$fb
8dd5: f0 04                        beq     L8DDB
8dd7: a9 20                        lda     #$20
8dd9: 85 a2                        sta     $a2
8ddb: 60           L8DDB           rts

8ddc: a0 06        L8DDC           ldy     #$06
8dde: b1 b0                        lda     ($b0),Y
8de0: a8           L8DE0           tay
8de1: 48                           pha
8de2: a5 a4                        lda     $a4
8de4: 4a                           lsr     A
8de5: f0 38                        beq     L8E1F
8de7: b0 36                        bcs     L8E1F
8de9: 68                           pla
8dea: 48                           pha
8deb: c9 20                        cmp     #$20
8ded: b0 30                        bcs     L8E1F
8def: c9 10                        cmp     #$10
8df1: 90 16                        bcc     L8E09
8df3: ad 2b fe                     lda     fdcdat
8df6: 48                           pha
8df7: 68           L8DF7           pla
8df8: cd 29 fe                     cmp     fdcsec-1
8dfb: f0 22                        beq     L8E1F
8dfd: 48                           pha
8dfe: a9 50                        lda     #$50
8e00: b0 02                        bcs     L8E04
8e02: a9 70                        lda     #$70
8e04: 20 e0 8d     L8E04           jsr     L8DE0
8e07: 80 ee                        bra     L8DF7

8e09: ad 29 fe     L8E09           lda     fdcsec-1
8e0c: 8d 2b fe                     sta     fdcdat
8e0f: a9 10                        lda     #$10
8e11: 80 02                        bra     L8E15

8e13: a9 60        L8E13           lda     #$60
8e15: 20 e0 8d     L8E15           jsr     L8DE0
8e18: ad 28 fe                     lda     fdccmd
8e1b: 89 04                        bit     #$04
8e1d: f0 f4                        beq     L8E13
8e1f: 68           L8E1F           pla
8e20: a0 ff                        ldy     #$ff
8e22: c8           L8E22           iny
8e23: d9 64 91                     cmp     tblErrTransQ,Y
8e26: d0 fa                        bne     L8E22
8e28: 48                           pha
8e29: b9 71 91                     lda     L9171,Y
8e2c: 8d 05 0d                     sta     intnmi+5
8e2f: 66 a2                        ror     $a2
8e31: 68                           pla
8e32: 10 56                        bpl     L8E8A
8e34: 85 a7                        sta     $a7
8e36: a0 01                        ldy     #$01
8e38: c9 c0                        cmp     #$c0
8e3a: f0 19                        beq     L8E55
8e3c: 09 04                        ora     #$04
8e3e: b0 15                        bcs     L8E55
8e40: a4 a5                        ldy     $a5
8e42: c9 85                        cmp     #$85
8e44: f0 09                        beq     L8E4F
8e46: c9 87                        cmp     #$87
8e48: d0 0b                        bne     L8E55
8e4a: a9 14                        lda     #$14
8e4c: 8d 43 0d                     sta     intnmi+67
8e4f: a9 80        L8E4F           lda     #$80
8e51: 85 a7                        sta     $a7
8e53: a9 84                        lda     #$84
8e55: 84 a5        L8E55           sty     $a5
8e57: 8d 28 fe                     sta     fdccmd
8e5a: c9 f0                        cmp     #$f0
8e5c: 90 08                        bcc     L8E66
8e5e: 20 b7 8e                     jsr     L8EB7
8e61: 29 5c                        and     #$5c
8e63: 85 a2                        sta     $a2
8e65: 60                           rts

8e66: a5 a2        L8E66           lda     $a2
8e68: 30 fc                        bmi     L8E66
8e6a: c9 20                        cmp     #$20
8e6c: d0 03                        bne     L8E71
8e6e: 20 bd 8e                     jsr     L8EBD
8e71: a5 a7        L8E71           lda     $a7
8e73: 30 12                        bmi     L8E87
8e75: c9 20                        cmp     #$20
8e77: 90 0e                        bcc     L8E87
8e79: 29 03                        and     #$03
8e7b: c9 02                        cmp     #$02
8e7d: d0 08                        bne     L8E87
8e7f: a0 30                        ldy     #$30
8e81: 3a           L8E81           dec     A
8e82: d0 fd                        bne     L8E81
8e84: 88                           dey
8e85: d0 fa                        bne     L8E81
8e87: a5 a2        L8E87           lda     $a2
8e89: 60                           rts

8e8a: a0 01        L8E8A           ldy     #$01
8e8c: 84 a5                        sty     $a5
8e8e: 05 a4                        ora     $a4
8e90: 85 a7                        sta     $a7
8e92: 8d 28 fe                     sta     fdccmd
8e95: a8                           tay
8e96: a5 b2                        lda     $b2
8e98: 4a                           lsr     A
8e99: b0 cb                        bcs     L8E66
8e9b: c0 20                        cpy     #$20
8e9d: b0 c7                        bcs     L8E66
8e9f: a5 a2        L8E9F           lda     $a2
8ea1: 10 13                        bpl     L8EB6
8ea3: a5 ff                        lda     $ff
8ea5: 10 f8                        bpl     L8E9F
8ea7: a9 40                        lda     #$40
8ea9: 8d 00 0d                     sta     intnmi
8eac: 9c 24 fe                     stz     $fe24
8eaf: a5 ff                        lda     $ff
8eb1: 8d 82 c2                     sta     $c282
8eb4: 85 a2                        sta     $a2
8eb6: 60           L8EB6           rts

8eb7: ad 28 fe     L8EB7           lda     fdccmd
8eba: 6a                           ror     A
8ebb: 90 fa                        bcc     L8EB7
8ebd: ad 28 fe     L8EBD           lda     fdccmd
8ec0: 6a                           ror     A
8ec1: b0 fa                        bcs     L8EBD
8ec3: ad 28 fe                     lda     fdccmd
8ec6: 60                           rts

8ec7: a9 14        L8EC7           lda     #$14
8ec9: 8d 54 0d                     sta     intnmi+84
8ecc: ae 43 0d                     ldx     intnmi+67
8ecf: e9 01        L8ECF           sbc     #$01
8ed1: d0 fc                        bne     L8ECF
8ed3: 8e 43 0d                     stx     intnmi+67
8ed6: a9 04                        lda     #$04
8ed8: 85 a6                        sta     $a6
8eda: 20 dc 8d                     jsr     L8DDC
8edd: d0 04                        bne     L8EE3
8edf: c6 b3                        dec     $b3
8ee1: d0 ec                        bne     L8ECF
8ee3: 60           L8EE3           rts

8ee4: 20 04 8f     L8EE4           jsr     L8F04
8ee7: d0 1a                        bne     L8F03
8ee9: a5 cd                        lda     $cd
8eeb: 29 01                        and     #$01
8eed: 0a                           asl     A
8eee: a8                           tay
8eef: a5 ce                        lda     $ce
8ef1: 2c 8a c2                     bit     $c28a
8ef4: 10 01                        bpl     L8EF7
8ef6: 4a                           lsr     A
8ef7: d9 8b c2     L8EF7           cmp     $c28b,Y
8efa: f0 e8                        beq     L8EE4
8efc: d9 8c c2                     cmp     $c28c,Y
8eff: f0 e3                        beq     L8EE4
8f01: a9 00                        lda     #$00
8f03: 60           L8F03           rts

8f04: 2c 8a c2     L8F04           bit     $c28a
8f07: 10 07                        bpl     L8F10
8f09: a9 40                        lda     #$40
8f0b: 20 12 8f                     jsr     L8F12
8f0e: d0 f3                        bne     L8F03
8f10: a9 50        L8F10           lda     #$50
8f12: e6 ce        L8F12           inc     $ce
8f14: 4c e0 8d                     jmp     L8DE0

8f17: a5 cd        L8F17           lda     $cd
8f19: 29 01                        and     #$01
8f1b: 0a                           asl     A
8f1c: aa                           tax
8f1d: a0 07                        ldy     #$07
8f1f: b1 b0                        lda     ($b0),Y
8f21: 20 4b 8f                     jsr     L8F4B
8f24: 2c 8a c2                     bit     $c28a
8f27: 10 01                        bpl     L8F2A
8f29: 0a                           asl     A
8f2a: 85 ce        L8F2A           sta     $ce
8f2c: a8                           tay
8f2d: f0 0a                        beq     L8F39
8f2f: 8d 2b fe     L8F2F           sta     fdcdat
8f32: cd 2b fe                     cmp     fdcdat
8f35: d0 f8                        bne     L8F2F
8f37: a9 10                        lda     #$10
8f39: 20 e0 8d     L8F39           jsr     L8DE0
8f3c: d0 18                        bne     L8F56
8f3e: a0 07                        ldy     #$07
8f40: b1 b0                        lda     ($b0),Y
8f42: 8d 29 fe     L8F42           sta     fdcsec-1
8f45: cd 29 fe                     cmp     fdcsec-1
8f48: d0 f8                        bne     L8F42
8f4a: 60                           rts

8f4b: 20 4f 8f     L8F4B           jsr     L8F4F
8f4e: e8                           inx
8f4f: dd 8b c2     L8F4F           cmp     $c28b,X
8f52: 90 02                        bcc     L8F56
8f54: 69 00                        adc     #$00
8f56: 60           L8F56           rts

8f57: a9 ea        L8F57           lda     #$ea
8f59: a2 00                        ldx     #$00
8f5b: a0 ff                        ldy     #$ff
8f5d: 20 f4 ff                     jsr     $fff4
8f60: 8a                           txa
8f61: 49 ff                        eor     #$ff
8f63: 8d d6 c2                     sta     WKSP2D6_TubePresentIf0
8f66: 60                           rts

8f67: a2 02        L8F67           ldx     #$02
8f69: b5 b0        L8F69           lda     $b0,X
8f6b: 48                           pha
8f6c: ca                           dex
8f6d: 10 fa                        bpl     L8F69
8f6f: a9 8f                        lda     #$8f
8f71: a2 0c                        ldx     #$0c
8f73: a0 ff                        ldy     #$ff
8f75: 20 f4 ff                     jsr     $fff4
8f78: 68                           pla
8f79: 85 b0                        sta     $b0
8f7b: 68                           pla
8f7c: 85 b1                        sta     $b1
8f7e: 68                           pla
8f7f: 85 b2                        sta     $b2
8f81: 84 a0                        sty     $a0
8f83: ee d3 c2                     inc     $c2d3
8f86: 60                           rts

8f87: a4 a0        L8F87           ldy     $a0
8f89: a9 8f                        lda     #$8f
8f8b: a2 0b                        ldx     #$0b
8f8d: 20 f4 ff                     jsr     $fff4
8f90: ce d3 c2                     dec     $c2d3
8f93: 60                           rts

8f94: 48           TUBE_CLAIM      pha
8f95: a9 c1        @tclloop        lda     #$c1
8f97: 20 06 04                     jsr     TubeCode
8f9a: 90 f9                        bcc     @tclloop
8f9c: 68                           pla
8f9d: 60                           rts

8f9e: 20 57 8f     L8F9E           jsr     L8F57
8fa1: 30 07                        bmi     L8FAA
8fa3: 48           L8FA3           pha
8fa4: a9 81                        lda     #$81
8fa6: 20 06 04                     jsr     TubeCode
8fa9: 68                           pla
8faa: 60           L8FAA           rts

8fab: a9 a1        L8FAB           lda     #$a1
8fad: a2 0b                        ldx     #$0b
8faf: 20 f4 ff                     jsr     $fff4
8fb2: 98                           tya
8fb3: 29 03                        and     #$03
8fb5: 85 a4                        sta     $a4
8fb7: 60                           rts

8fb8: a2 59        L8FB8           ldx     #$59
8fba: bd 11 90     L8FBA           lda     L9011,X
8fbd: 9d 00 0d                     sta     intnmi,X
8fc0: ca                           dex
8fc1: 10 f7                        bpl     L8FBA
8fc3: a2 0b                        ldx     #$0b
8fc5: 24 a1                        bit     $a1
8fc7: 50 1e                        bvc     L8FE7
8fc9: a9 3d                        lda     #$3d
8fcb: 8d 56 0d                     sta     intnmi+86
8fce: a9 06                        lda     #$06
8fd0: 24 b2                        bit     $b2
8fd2: 30 03                        bmi     L8FD7
8fd4: 8d 54 0d                     sta     intnmi+84
8fd7: 9c 22 0d     L8FD7           stz     intnmi+34
8fda: a2 16                        ldx     #$16
8fdc: bd 6a 90     L8FDC           lda     L906A,X
8fdf: 9d 38 0d                     sta     intnmi+56,X
8fe2: ca                           dex
8fe3: d0 f7                        bne     L8FDC
8fe5: 80 0d                        bra     L8FF4

8fe7: 24 b2        L8FE7           bit     $b2
8fe9: 50 09                        bvc     L8FF4
8feb: ac c2 c2                     ldy     $c2c2
8fee: b9 13 c3                     lda     $c313,Y
8ff1: 8d 3e 0d                     sta     intnmi+62
8ff4: 24 a1        L8FF4           bit     $a1
8ff6: 30 0e                        bmi     L9006
8ff8: a0 01                        ldy     #$01
8ffa: b1 b0                        lda     ($b0),Y
8ffc: 9d 3a 0d                     sta     intnmi+58,X
8fff: c8                           iny
9000: b1 b0                        lda     ($b0),Y
9002: 9d 3b 0d                     sta     intnmi+59,X
9005: 60                           rts

9006: a9 80        L9006           lda     #$80
9008: 8d 47 0d                     sta     intnmi+71
900b: a9 06                        lda     #$06
900d: 8d 48 0d                     sta     intnmi+72
9010: 60                           rts

9011: 48           L9011           pha
9012: ad 28 fe                     lda     fdccmd
9015: 29 18                        and     #$18
9017: c9 03                        cmp     #$03
9019: f0 2f                        beq     L904A
901b: 29 fc                        and     #$fc
901d: d0 04                        bne     L9023
901f: c6 a5                        dec     $a5
9021: d0 04                        bne     L9027
9023: 85 a2        L9023           sta     $a2
9025: 68                           pla
9026: 40                           rti

9027: a5 a5        L9027           lda     $a5
9029: c9 01                        cmp     #$01
902b: d0 0a                        bne     L9037
902d: a5 a1                        lda     $a1
902f: 6a                           ror     A
9030: 90 05                        bcc     L9037
9032: a9 14                        lda     #$14
9034: 8d 54 0d                     sta     intnmi+84
9037: e6 cf        L9037           inc     $cf
9039: a5 cf                        lda     $cf
903b: 8d 2a fe     L903B           sta     fdcsec
903e: cd 2a fe                     cmp     fdcsec
9041: d0 f8                        bne     L903B
9043: a5 a7                        lda     $a7
9045: 8d 28 fe                     sta     fdccmd
9048: 68                           pla
9049: 40                           rti

904a: ad 2b fe     L904A           lda     fdcdat
904d: 8d 00 ff                     sta     $ff00
9050: ee 3d 0d                     inc     intnmi+61
9053: 80 00                        bra     L9055

9055: 8d e5 fe     L9055           sta     sheila_TUBE_R3_data
9058: ee 45 0d                     inc     intnmi+69
905b: d0 03                        bne     L9060
905d: ee 46 0d                     inc     intnmi+70
9060: c6 a6        L9060           dec     $a6
9062: d0 05                        bne     L9069
9064: a9 00                        lda     #$00
9066: 8d 43 0d                     sta     intnmi+67
9069: 68           L9069           pla
906a: 40           L906A           rti

906b: ad e5 fe                     lda     sheila_TUBE_R3_data
906e: 80 06                        bra     L9076

9070: 9c 2b fe                     stz     fdcdat
9073: 68                           pla
9074: 40                           rti

9075: ea                           .dd1    $ea

9076: 8d 2b fe     L9076           sta     fdcdat
9079: ee 3a 0d                     inc     intnmi+58
907c: d0 03                        bne     L9081
907e: ee 3b 0d                     inc     intnmi+59
9081: ae 45 0d     L9081           ldx     intnmi+69
9084: ad 46 0d                     lda     intnmi+70
9087: 48                           pha
9088: a0 94                        ldy     #$94
908a: b9 a9 90     L908A           lda     nmiQ1-1,Y
908d: 99 ff 0c     L908D           sta     intnmi-1,Y
9090: 88                           dey
9091: d0 f7                        bne     L908A
9093: 68                           pla
9094: 24 a1                        bit     $a1
9096: 10 0b                        bpl     L90A3
9098: a9 b0                        lda     #$b0
909a: 8d 18 0d                     sta     intnmi+24
909d: a9 06                        lda     #$06
909f: 8d 19 0d                     sta     intnmi+25
90a2: 60                           rts

90a3: 8e 16 0d     L90A3           stx     intnmi+22
90a6: 8d 17 0d                     sta     intnmi+23
90a9: 60                           rts

90aa: 48           nmiQ1           pha
90ab: ad 28 fe                     lda     fdccmd
90ae: 29 1b                        and     #$1b
90b0: c9 03                        cmp     #$03
90b2: d0 05                        bne     L90B9
90b4: ad 2b fe                     lda     fdcdat
90b7: b0 26                        bcs     L90DF
90b9: 29 fc        L90B9           and     #$fc
90bb: 85 a2                        sta     $a2
90bd: 68                           pla
90be: 40                           rti

90bf: 8d e5 fe                     sta     sheila_TUBE_R3_data
90c2: ee 16 0d                     inc     intnmi+22
90c5: d0 03                        bne     L90CA
90c7: ee 17 0d                     inc     intnmi+23
90ca: c6 a6        L90CA           dec     $a6
90cc: d0 0f                        bne     L90DD
90ce: c6 a7                        dec     $a7
90d0: d0 0b                        bne     L90DD
90d2: a9 77                        lda     #$77
90d4: c6 a5                        dec     $a5
90d6: d0 02                        bne     L90DA
90d8: a9 24                        lda     #$24
90da: 8d 0e 0d     L90DA           sta     intnmi+14
90dd: 68           L90DD           pla
90de: 40                           rti

90df: c9 fe        L90DF           cmp     #$fe
90e1: f0 04                        beq     L90E7
90e3: c9 ce                        cmp     #$ce
90e5: d0 f6                        bne     L90DD
90e7: a9 32        L90E7           lda     #$32
90e9: d0 ef                        bne     L90DA

90eb: ed 2b fe                     sbc     fdcdat
90ee: 85 b5                        sta     $b5
90f0: a9 3b                        lda     #$3b
90f2: d0 e6                        bne     L90DA

90f4: a9 3f                        lda     #$3f
90f6: d0 e2                        bne     L90DA

90f8: e5 cf                        sbc     $cf
90fa: 05 b5                        ora     $b5
90fc: 85 b5                        sta     $b5
90fe: a9 49                        lda     #$49
9100: d0 d8                        bne     L90DA

9102: a9 4d                        lda     #$4d
9104: d0 d4                        bne     L90DA

9106: a5 b3                        lda     $b3
9108: 85 a6                        sta     $a6
910a: a9 55                        lda     #$55
910c: d0 cc                        bne     L90DA

910e: a5 b4                        lda     $b4
9110: 85 a7                        sta     $a7
9112: a9 5d                        lda     #$5d
9114: d0 c4                        bne     L90DA

9116: c9 fb                        cmp     #$fb
9118: f0 04                        beq     L911E
911a: c9 f8                        cmp     #$f8
911c: d0 bf                        bne     L90DD
911e: 85 b6        L911E           sta     $b6
9120: a5 b5                        lda     $b5
9122: d0 06                        bne     L912A
9124: e6 cf                        inc     $cf
9126: a9 06                        lda     #$06
9128: d0 b0                        bne     L90DA

912a: e6 a5        L912A           inc     $a5
912c: a9 11                        lda     #$11
912e: d0 aa                        bne     L90DA

9130: a9 7b                        lda     #$7b
9132: d0 a6                        bne     L90DA

9134: a9 7f                        lda     #$7f
9136: d0 a2                        bne     L90DA

9138: d0 a3                        bne     L90DD
913a: a9 26                        lda     #$26
913c: d0 9c                        bne     L90DA

913e: 8d 2a fe     L913E           sta     fdcsec
9141: cd 2a fe                     cmp     fdcsec
9144: d0 f8                        bne     L913E
9146: 60                           rts

9147: a2 00                        ldx     #$00
9149: a9 5a                        lda     #$5a
914b: 8d 29 fe     L914B           sta     fdcsec-1
914e: cd 29 fe                     cmp     fdcsec-1
9151: f0 05                        beq     L9158
9153: ca                           dex
9154: d0 f5                        bne     L914B
9156: 18           L9156           clc
9157: 60                           rts

9158: ad 24 fe     L9158           lda     $fe24
915b: 29 03                        and     #$03
915d: f0 f7                        beq     L9156
915f: 60                           rts

9160: 25           tblDrvCtlQ      .dd1    $25
9161: 26                           .dd1    $26
9162: 35                           .dd1    $35
9163: 36                           .dd1    $36
9164: 00           tblErrTransQ    .dd1    $00
9165: 10                           .dd1    $10
9166: 40                           .dd1    $40
9167: 50                           .dd1    $50
9168: 70                           .dd1    $70
9169: 80                           .dd1    $80
916a: 81                           .dd1    $81
916b: 83                           .dd1    $83
916c: a0 a1 c0 e0+                 .str    ↑“ !@`p”
9171: 18 18 18 18+ L9171           .fill   5,$18
9176: 3f                           .dd1    $3f
9177: 1f                           .dd1    $1f
9178: 1f                           .dd1    $1f
9179: 5f                           .dd1    $5f
917a: 5f                           .dd1    $5f
917b: 17                           .dd1    $17
917c: 1b                           .dd1    $1b
917d: 5f                           .dd1    $5f
917e: 08           L917E           .dd1    $08
917f: 10                           .dd1    $10
9180: 18                           .dd1    $18
9181: 20                           .dd1    $20
9182: 40                           .dd1    $40
9183: 00                           .dd1    $00
9184: 0e           L9184           .dd1    $0e
9185: 18                           .dd1    $18
9186: 0c                           .dd1    $0c
9187: 20                           .dd1    $20
9188: 12                           .dd1    $12
9189: 00                           .dd1    $00
918a: b2           L918A           .dd1    $b2
918b: 91           L918B           .dd1    $91
918c: 8e                           .dd1    $8e
918d: 91                           .dd1    $91
918e: 3c                           .dd1    $3c
918f: 0c                           .dd1    $0c
9190: 03                           .dd1    $03
9191: 01 01 01 01+                 .fill   6,$01
9197: 16                           .dd1    $16
9198: 0c                           .dd1    $0c
9199: 03                           .dd1    $03
919a: 01                           .dd1    $01
919b: ff                           .dd1    $ff
919c: 01                           .dd1    $01
919d: 01                           .dd1    $01
919e: 18                           .dd1    $18
919f: 04                           .dd1    $04
91a0: 4e                           .dd1    $4e
91a1: 00                           .dd1    $00
91a2: f5                           .dd1    $f5
91a3: fe                           .dd1    $fe
91a4: 00                           .dd1    $00
91a5: 00                           .dd1    $00
91a6: 00                           .dd1    $00
91a7: 00                           .dd1    $00
91a8: f7                           .dd1    $f7
91a9: 4e                           .dd1    $4e
91aa: 00                           .dd1    $00
91ab: f5                           .dd1    $f5
91ac: fb                           .dd1    $fb
91ad: 5a                           .dd1    $5a
91ae: 5a                           .dd1    $5a
91af: f7                           .dd1    $f7
91b0: 4e                           .dd1    $4e
91b1: 4e                           .dd1    $4e
91b2: 10                           .dd1    $10
91b3: 06                           .dd1    $06
91b4: 00                           .dd1    $00
91b5: 01 01 01 01+                 .fill   6,$01
91bb: 0b                           .dd1    $0b
91bc: 06                           .dd1    $06
91bd: 00                           .dd1    $00
91be: 01                           .dd1    $01
91bf: ff                           .dd1    $ff
91c0: 01                           .dd1    $01
91c1: 01                           .dd1    $01
91c2: 13                           .dd1    $13
91c3: 03                           .dd1    $03
91c4: ff                           .dd1    $ff
91c5: 00                           .dd1    $00
91c6: 00                           .dd1    $00
91c7: fe                           .dd1    $fe
91c8: 00                           .dd1    $00
91c9: 00                           .dd1    $00
91ca: 00                           .dd1    $00
91cb: 00                           .dd1    $00
91cc: f7                           .dd1    $f7
91cd: ff                           .dd1    $ff
91ce: 00                           .dd1    $00
91cf: 00                           .dd1    $00
91d0: fb e5 e5 f7                  .str    ↑“{eew”
91d4: ff                           .dd1    $ff
91d5: ff                           .dd1    $ff
91d6: 0a           L91D6           .dd1    $0a
91d7: 0b                           .dd1    $0b
91d8: 0e                           .dd1    $0e
91d9: 0f                           .dd1    $0f
91da: 12                           .dd1    $12
91db: 13                           .dd1    $13
91dc: 16                           .dd1    $16
91dd: 17                           .dd1    $17
91de: 1b                           .dd1    $1b
91df: 1e                           .dd1    $1e
91e0: 1f                           .dd1    $1f
91e1: 23 29 20 30                  .str    “#) 0”
91e5: a0 a0 a1 a1  L91E5           .str    ↑“  !!”
91e9: 80                           .dd1    $80
91ea: 80                           .dd1    $80
91eb: 81                           .dd1    $81
91ec: 81                           .dd1    $81
91ed: c0                           .dd1    $c0
91ee: 83                           .dd1    $83
91ef: 83                           .dd1    $83
91f0: f0                           .dd1    $f0
91f1: 10                           .dd1    $10
91f2: e0                           .dd1    $e0
91f3: f0                           .dd1    $f0

91f4: a9 ff        L91F4           lda     #$ff
91f6: 8d 82 c2                     sta     $c282
91f9: 86 c7                        stx     $c7
91fb: 84 c8                        sty     $c8
91fd: a0 0c                        ldy     #$0c
91ff: b1 c7        L91FF           lda     ($c7),Y
9201: 99 ba 00                     sta     $00ba,Y
9204: 88                           dey
9205: 10 f8                        bpl     L91FF
9207: a2 0c                        ldx     #$0c
9209: a5 bf                        lda     $bf
920b: c9 0a                        cmp     #$0a
920d: d0 02                        bne     L9211
920f: a2 0e                        ldx     #$0e
9211: a5 c0        L9211           lda     $c0
9213: 29 3f                        and     #$3f
9215: c9 3a                        cmp     #$3a
9217: f0 4b                        beq     L9264
9219: c9 3d                        cmp     #$3d
921b: f0 67                        beq     L9284
921d: c9 35                        cmp     #$35
921f: d0 03                        bne     L9224
9221: 4c 9f 92                     jmp     L929F

9224: dd d6 91     L9224           cmp     L91D6,X
9227: f0 07                        beq     L9230
9229: ca                           dex
922a: 10 f8                        bpl     L9224
922c: a9 fe        L922C           lda     #$fe
922e: 30 29                        bmi     L9259

9230: c9 23        L9230           cmp     #$23
9232: f0 04                        beq     L9238
9234: e0 04                        cpx     #$04
9236: b0 0e                        bcs     L9246
9238: a5 ba        L9238           lda     $ba
923a: 10 02                        bpl     L923E
923c: a5 cd                        lda     $cd
923e: 29 03        L923E           and     #$03
9240: a8                           tay
9241: b9 de c2                     lda     $c2de,Y
9244: 30 e6                        bmi     L922C
9246: bc e5 91     L9246           ldy     L91E5,X
9249: 84 c0                        sty     $c0
924b: c0 f0                        cpy     #$f0
924d: d0 03                        bne     L9252
924f: 20 e2 92                     jsr     L92E2
9252: a2 ba        L9252           ldx     #$ba
9254: a0 00                        ldy     #$00
9256: 20 cd 8b                     jsr     L8BCD
9259: 48           L9259           pha
925a: a5 bf                        lda     $bf
925c: 18                           clc
925d: 69 07                        adc     #$07
925f: a8                           tay
9260: 68                           pla
9261: 91 c7                        sta     ($c7),Y
9263: 60                           rts

9264: 20 cf 92     L9264           jsr     L92CF
9267: b0 07                        bcs     L9270
9269: a5 c2                        lda     $c2
926b: 9d 8b c2                     sta     $c28b,X
926e: 90 10                        bcc     L9280

9270: 20 be 92     L9270           jsr     L92BE
9273: 90 27                        bcc     L929C
9275: a5 c2                        lda     $c2
9277: bc de c2                     ldy     $c2de,X
927a: 10 01                        bpl     L927D
927c: 0a                           asl     A
927d: 9d 88 c2     L927D           sta     $c288,X
9280: a9 00        L9280           lda     #$00
9282: f0 18                        beq     L929C

9284: 20 cf 92     L9284           jsr     L92CF
9287: b0 05                        bcs     L928E
9289: bd 8b c2                     lda     $c28b,X
928c: 90 0e                        bcc     L929C

928e: 20 be 92     L928E           jsr     L92BE
9291: 90 09                        bcc     L929C
9293: bd 88 c2                     lda     $c288,X
9296: bc de c2                     ldy     $c2de,X
9299: 10 01                        bpl     L929C
929b: 4a                           lsr     A
929c: 4c 59 92     L929C           jmp     L9259

929f: a9 ff        L929F           lda     #$ff
92a1: a2 00                        ldx     #$00
92a3: a4 c1                        ldy     $c1
92a5: c0 10                        cpy     #$10
92a7: f0 06                        beq     L92AF
92a9: c0 18                        cpy     #$18
92ab: d0 0e                        bne     L92BB
92ad: e8                           inx
92ae: e8                           inx
92af: a5 c2        L92AF           lda     $c2
92b1: 9d 8b c2                     sta     $c28b,X
92b4: a5 c3                        lda     $c3
92b6: 9d 8c c2                     sta     $c28c,X
92b9: a9 00                        lda     #$00
92bb: 4c 59 92     L92BB           jmp     L9259

92be: a2 00        L92BE           ldx     #$00
92c0: a5 c1                        lda     $c1
92c2: c9 12                        cmp     #$12
92c4: f0 08                        beq     L92CE
92c6: e8                           inx
92c7: c9 1a                        cmp     #$1a
92c9: f0 03                        beq     L92CE
92cb: a9 fe                        lda     #$fe
92cd: 18                           clc
92ce: 60           L92CE           rts

92cf: a5 c1        L92CF           lda     $c1
92d1: 29 f6                        and     #$f6
92d3: c9 10                        cmp     #$10
92d5: 38                           sec
92d6: d0 09                        bne     L92E1
92d8: a5 c1                        lda     $c1
92da: 4a                           lsr     A
92db: 4a                           lsr     A
92dc: 05 c1                        ora     $c1
92de: 29 03                        and     #$03
92e0: aa                           tax
92e1: 60           L92E1           rts

92e2: 20 88 a5     L92E2           jsr     LA588
92e5: a5 bb                        lda     $bb
92e7: 85 b0                        sta     $b0
92e9: 85 b4                        sta     $b4
92eb: 18                           clc
92ec: 69 80                        adc     #$80
92ee: 85 b2                        sta     $b2
92f0: a5 bc                        lda     $bc
92f2: 85 b1                        sta     $b1
92f4: 08                           php
92f5: 20 57 8f                     jsr     L8F57
92f8: 30 08                        bmi     L9302
92fa: a5 bd                        lda     $bd
92fc: 05 be                        ora     $be
92fe: c9 ff                        cmp     #$ff
9300: d0 07                        bne     L9309
9302: a5 b1        L9302           lda     $b1
9304: cd cf c2                     cmp     $c2cf
9307: b0 03                        bcs     L930C
9309: ad cf c2     L9309           lda     $c2cf
930c: 28           L930C           plp
930d: 85 b5                        sta     $b5
930f: 69 00                        adc     #$00
9311: 85 b3                        sta     $b3
9313: e6 b5                        inc     $b5
9315: a5 ba                        lda     $ba
9317: 10 02                        bpl     L931B
9319: a9 00                        lda     #$00
931b: 2a           L931B           rol     A
931c: 2a                           rol     A
931d: 2a                           rol     A
931e: 8d 8a c2                     sta     $c28a
9321: a2 02                        ldx     #$02
9323: 2a                           rol     A
9324: 30 02                        bmi     L9328
9326: a2 00                        ldx     #$00
9328: bd 8a 91     L9328           lda     L918A,X
932b: 85 b6                        sta     $b6
932d: bd 8b 91                     lda     L918B,X
9330: 85 b7                        sta     $b7
9332: a0 23                        ldy     #$23
9334: b1 b6        L9334           lda     ($b6),Y
9336: 91 b2                        sta     ($b2),Y
9338: 88                           dey
9339: 10 f9                        bpl     L9334
933b: c8                           iny
933c: 84 b6                        sty     $b6
933e: a5 c3                        lda     $c3
9340: 48                           pha
9341: 29 e0                        and     #$e0
9343: d0 02                        bne     L9347
9345: a9 10                        lda     #$10
9347: 0a           L9347           asl     A
9348: 26 b6                        rol     $b6
934a: 0a                           asl     A
934b: 26 b6                        rol     $b6
934d: 0a                           asl     A
934e: 26 b6                        rol     $b6
9350: a0 0d                        ldy     #$0d
9352: 91 b2                        sta     ($b2),Y
9354: a5 b6                        lda     $b6
9356: c8                           iny
9357: 91 b2                        sta     ($b2),Y
9359: 68                           pla
935a: 29 1f                        and     #$1f
935c: 85 b9                        sta     $b9
935e: a5 c2                        lda     $c2
9360: a0 10                        ldy     #$10
9362: 91 b2                        sta     ($b2),Y
9364: a5 c5                        lda     $c5
9366: a0 00                        ldy     #$00
9368: 91 b2                        sta     ($b2),Y
936a: 98                           tya
936b: 85 b8                        sta     $b8
936d: 20 18 94                     jsr     L9418
9370: 20 57 8f                     jsr     L8F57
9373: 30 37                        bmi     L93AC
9375: a5 bd                        lda     $bd
9377: 25 be                        and     $be
9379: c9 ff                        cmp     #$ff
937b: f0 2f                        beq     L93AC
937d: a9 ff                        lda     #$ff
937f: 85 bd                        sta     $bd
9381: 85 be                        sta     $be
9383: 20 94 8f                     jsr     TUBE_CLAIM
9386: a2 bb                        ldx     #$bb
9388: a0 00                        ldy     #$00
938a: 98                           tya
938b: 20 06 04                     jsr     TubeCode
938e: a6 b5                        ldx     $b5
9390: ca                           dex
9391: 86 b1                        stx     $b1
9393: a5 b9                        lda     $b9
9395: 0a                           asl     A
9396: 0a                           asl     A
9397: aa                           tax
9398: a0 00                        ldy     #$00
939a: a9 07        L939A           lda     #$07
939c: e9 01        L939C           sbc     #$01
939e: d0 fc                        bne     L939C
93a0: ad e5 fe                     lda     sheila_TUBE_R3_data
93a3: 91 b0                        sta     ($b0),Y
93a5: c8                           iny
93a6: ca                           dex
93a7: 10 f1                        bpl     L939A
93a9: 20 a3 8f                     jsr     L8FA3
93ac: a5 b5        L93AC           lda     $b5
93ae: 85 bc                        sta     $bc
93b0: a0 16        L93B0           ldy     #$16
93b2: a2 00                        ldx     #$00
93b4: a1 b0        L93B4           lda     ($b0,X)
93b6: 91 b2                        sta     ($b2),Y
93b8: e6 b0                        inc     $b0
93ba: d0 02                        bne     L93BE
93bc: e6 b1                        inc     $b1
93be: c8           L93BE           iny
93bf: c0 1a                        cpy     #$1a
93c1: d0 f1                        bne     L93B4
93c3: a9 01                        lda     #$01
93c5: 85 b6                        sta     $b6
93c7: a5 b6        L93C7           lda     $b6
93c9: c9 0e                        cmp     #$0e
93cb: d0 05                        bne     L93D2
93cd: 20 f9 93                     jsr     L93F9
93d0: f0 03                        beq     L93D5
93d2: 20 18 94     L93D2           jsr     L9418
93d5: e6 b6        L93D5           inc     $b6
93d7: a5 b6                        lda     $b6
93d9: c9 11                        cmp     #$11
93db: d0 ea                        bne     L93C7
93dd: e6 b8                        inc     $b8
93df: c6 b9                        dec     $b9
93e1: d0 cd                        bne     L93B0
93e3: a8                           tay
93e4: a9 0e                        lda     #$0e
93e6: 2c 8a c2                     bit     $c28a
93e9: 50 02                        bvc     L93ED
93eb: a9 1a                        lda     #$1a
93ed: 18           L93ED           clc
93ee: 65 bc                        adc     $bc
93f0: e5 b5                        sbc     $b5
93f2: b0 02                        bcs     L93F6
93f4: a9 01                        lda     #$01
93f6: 91 b2        L93F6           sta     ($b2),Y
93f8: 98                           tya
93f9: 20 0a 94     L93F9           jsr     L940A
93fc: f0 0b                        beq     L9409
93fe: 86 b7                        stx     $b7
9400: a2 00                        ldx     #$00
9402: 20 1d 94     L9402           jsr     L941D
9405: c6 b7                        dec     $b7
9407: d0 f9                        bne     L9402
9409: 60           L9409           rts

940a: a8           L940A           tay
940b: b1 b2                        lda     ($b2),Y
940d: aa                           tax
940e: 98                           tya
940f: 18                           clc
9410: 69 12                        adc     #$12
9412: a8                           tay
9413: b1 b2                        lda     ($b2),Y
9415: e0 00                        cpx     #$00
9417: 60                           rts

9418: 20 0a 94     L9418           jsr     L940A
941b: f0 0d                        beq     L942A
941d: a0 00        L941D           ldy     #$00
941f: 91 b4        L941F           sta     ($b4),Y
9421: e6 b4                        inc     $b4
9423: d0 02                        bne     L9427
9425: e6 b5                        inc     $b5
9427: ca           L9427           dex
9428: d0 f5                        bne     L941F
942a: 60           L942A           rts

942b: ad 04 c1     L942B           lda     $c104
942e: 18                           clc
942f: f8                           sed
9430: 69 01                        adc     #$01
9432: 8d 04 c1                     sta     $c104
9435: d8                           cld
9436: a0 a0                        ldy     #$a0
9438: d0 19                        bne     L9453

943a: a0 81        L943A           ldy     #$81
943c: d0 15                        bne     L9453

943e: a0 81        L943E           ldy     #$81
9440: d0 02                        bne     L9444

9442: a0 80        L9442           ldy     #$80
9444: 2c 28 fe     L9444           bit     fdccmd
9447: 10 0a                        bpl     L9453
9449: ad 82 c2                     lda     $c282
944c: c5 cd                        cmp     $cd
944e: d0 03                        bne     L9453
9450: 60                           rts

9451: a0 80        L9451           ldy     #$80
9453: 20 7d 95     L9453           jsr     L957D
9456: 8c 96 c2                     sty     $c296
9459: a5 cd                        lda     $cd
945b: 8d 90 c2                     sta     $c290
945e: a9 02                        lda     #$02
9460: 8d 99 c2                     sta     $c299
9463: a9 c0                        lda     #$c0
9465: 8d 92 c2                     sta     $c292
9468: ce 93 c2                     dec     $c293
946b: ce 94 c2                     dec     $c294
946e: 20 8a 94                     jsr     L948A
9471: a5 cd                        lda     $cd
9473: 8d 82 c2                     sta     $c282
9476: 60                           rts

9477: 24 ff        L9477           bit     $ff
9479: 10 0e                        bpl     L9489
947b: 20 cc a5     L947B           jsr     LA5CC
947e: 20 48 80                     jsr     do_following_brk
9481: 11 45                        ora     ($45),Y
9483: 73 63 61 70+                 .str    “scape”
9488: 00                           .dd1    $00

9489: 60           L9489           rts

948a: 64 b2        L948A           stz     $b2
948c: 20 5d 95     L948C           jsr     L955D
948f: a9 06                        lda     #$06
9491: 8d 9e c2                     sta     $c29e
9494: 20 77 94                     jsr     L9477
9497: ad 97 c2     L9497           lda     $c297
949a: ae 90 c2                     ldx     $c290
949d: bc de c2                     ldy     $c2de,X
94a0: 10 01                        bpl     L94A3
94a2: 0a                           asl     A
94a3: a0 18        L94A3           ldy     #$18
94a5: c9 50                        cmp     #$50
94a7: b0 5f                        bcs     L9508
94a9: a2 90                        ldx     #$90
94ab: a0 c2                        ldy     #$c2
94ad: 20 d1 8b                     jsr     L8BD1
94b0: a8                           tay
94b1: f0 d6                        beq     L9489
94b3: 30 c6                        bmi     L947B
94b5: c9 12                        cmp     #$12
94b7: f0 54                        beq     L950D
94b9: c9 20                        cmp     #$20
94bb: d0 17                        bne     L94D4
94bd: ad 96 c2                     lda     $c296
94c0: 6a                           ror     A
94c1: b0 c6                        bcs     L9489
94c3: 20 48 80                     jsr     do_following_brk
94c6: bc                           .dd1    $bc
94c7: 45 78 65 63+                 .zstr   “Execute only”
94d4: c9 18        L94D4           cmp     #$18
94d6: d0 2b                        bne     L9503
94d8: ad 8a c2                     lda     $c28a
94db: c9 04                        cmp     #$04
94dd: d0 11                        bne     L94F0
94df: ae 96 c2                     ldx     $c296
94e2: e0 81                        cpx     #$81
94e4: d0 0a                        bne     L94F0
94e6: a9 ff                        lda     #$ff
94e8: 4d 8b c2                     eor     $c28b
94eb: 8d 8b c2                     sta     $c28b
94ee: b0 13                        bcs     L9503
94f0: a6 ce        L94F0           ldx     $ce
94f2: f0 0f                        beq     L9503
94f4: 2a                           rol     A
94f5: 29 80                        and     #$80
94f7: ae 90 c2                     ldx     $c290
94fa: 5d de c2                     eor     $c2de,X
94fd: 9d de c2                     sta     $c2de,X
9500: 20 5d 95                     jsr     L955D
9503: ce 9e c2     L9503           dec     $c29e
9506: d0 8f                        bne     L9497
9508: 98           L9508           tya
9509: c9 12                        cmp     #$12
950b: d0 0e                        bne     L951B
950d: 20 23 80     L950D           jsr     brk_with_prefix_disc
9510: c9                           .dd1    $c9
9511: 72 65 61 64+                 .zstr   “read only”
951b: 48           L951B           pha
951c: 20 23 80                     jsr     brk_with_prefix_disc
951f: 00                           .dd1    $00
9520: ea                           nop
9521: 20 4f 80                     jsr     L804F
9524: c7                           .dd1    $c7
9525: 66 61 75 6c+                 .str    “fault ”

952b: ea                           nop
952c: 68                           pla
952d: 20 6d 95                     jsr     L956D
9530: 20 4f 80                     jsr     L804F
9533: 00                           brk

9534: 20 61 74 20+                 .str    “ at :”

9539: a5 cd                        lda     $cd
953b: 20 75 95                     jsr     L9575
953e: 20 4f 80                     jsr     L804F
9541: 00                           brk

9542: 20                           .dd1    $20

9543: a5 ce                        lda     $ce
9545: 2c 8a c2                     bit     $c28a
9548: 10 01                        bpl     L954B
954a: 4a                           lsr     A
954b: 20 6d 95     L954B           jsr     L956D
954e: 20 4f 80                     jsr     L804F
9551: 00                           brk

9552: 2f                           .dd1    ‘/’

9553: a5 cf                        lda     $cf
9555: 20 6d 95                     jsr     L956D
9558: 20 4f 80                     jsr     L804F
955b: c7                           .dd1    $c7
955c: 00                           .dd1    $00

955d: ad 96 c2     L955D           lda     $c296
9560: c9 a0                        cmp     #$a0
9562: 90 18                        bcc     L957C
9564: ae 90 c2                     ldx     $c290
9567: bd de c2                     lda     $c2de,X
956a: 30 a1                        bmi     L950D
956c: 60                           rts

956d: 48           L956D           pha
956e: 20 be 81                     jsr     L81BE
9571: 20 75 95                     jsr     L9575
9574: 68                           pla
9575: 20 c8 80     L9575           jsr     L80C8
9578: 9d 00 01                     sta     $0100,X
957b: e8                           inx
957c: 60           L957C           rts

957d: a2 0d        L957D           ldx     #$0d
957f: a9 00                        lda     #$00
9581: 9d 8f c2     L9581           sta     $c28f,X
9584: ca                           dex
9585: d0 fa                        bne     L9581
9587: a9 05                        lda     #$05
9589: 8d 95 c2                     sta     $c295
958c: 60                           rts

958d: a2 11                        ldx     #$11
958f: a0 15                        ldy     #$15
9591: 60           L9591           rts

9592: 20 eb 83                     jsr     savita
9595: a9 77                        lda     #$77
9597: 20 f4 ff                     jsr     $fff4
959a: 4c f4 a1                     jmp     Serv10

959d: a9 20                        lda     #$20
959f: 8d 86 c2                     sta     $c286
95a2: a9 77        L95A2           lda     #$77
95a4: 20 f4 ff                     jsr     $fff4
95a7: a9 00        L95A7           lda     #$00
95a9: 18           L95A9           clc
95aa: 69 20                        adc     #$20
95ac: f0 e3                        beq     L9591
95ae: a8                           tay
95af: 20 bf 95                     jsr     L95BF
95b2: d0 f5                        bne     L95A9
95b4: a9 20        L95B4           lda     #$20
95b6: 8d 86 c2                     sta     $c286
95b9: 98                           tya
95ba: f0 e6                        beq     L95A2
95bc: 20 27 99                     jsr     L9927
95bf: 48           L95BF           pha
95c0: 20 a7 98                     jsr     L98A7
95c3: b0 46                        bcs     L960B
95c5: b9 1b c3                     lda     $c31b,Y
95c8: 49 ff                        eor     #$ff
95ca: 2d c0 c2                     and     $c2c0
95cd: 8d c0 c2                     sta     $c2c0
95d0: b9 17 c3                     lda     $c317,Y
95d3: 29 60                        and     #$60
95d5: f0 34                        beq     L960B
95d7: 20 10 96                     jsr     L9610
95da: b9 17 c3                     lda     $c317,Y
95dd: 2d 86 c2                     and     $c286
95e0: f0 26                        beq     L9608
95e2: ae c3 c2                     ldx     $c2c3
95e5: b9 14 c3                     lda     $c314,Y
95e8: 9d 0c c1                     sta     $c10c,X
95eb: b9 15 c3                     lda     $c315,Y
95ee: 9d 0d c1                     sta     $c10d,X
95f1: b9 16 c3                     lda     $c316,Y
95f4: 20 c4 81                     jsr     L81C4
95f7: 5d 0e c1                     eor     $c10e,X
95fa: 29 30                        and     #$30
95fc: 5d 0e c1                     eor     $c10e,X
95ff: 9d 0e c1                     sta     $c10e,X
9602: 20 2b 94                     jsr     L942B
9605: ac c2 c2                     ldy     $c2c2
9608: 20 c1 99     L9608           jsr     L99C1
960b: ae c5 c2     L960B           ldx     $c2c5
960e: 68                           pla
960f: 60                           rts

9610: 20 2b 96     L9610           jsr     L962B
9613: a2 06        L9613           ldx     #$06
9615: b9 0c c3     L9615           lda     $c30c,Y
9618: 95 c5                        sta     $c5,X
961a: 88                           dey
961b: 88                           dey
961c: ca                           dex
961d: 10 f6                        bpl     L9615
961f: 20 77 82                     jsr     L8277
9622: 90 22                        bcc     L9646
9624: 8c c3 c2                     sty     $c2c3
9627: ac c2 c2                     ldy     $c2c2
962a: 60           L962A           rts

962b: b9 0e c3     L962B           lda     $c30e,Y
962e: 29 7f                        and     #$7f
9630: 85 cc                        sta     $cc
9632: b9 17 c3                     lda     $c317,Y
9635: 4c cd 87                     jmp     L87CD

9638: 20 eb 83     L9638           jsr     savita
963b: ad 04 c1                     lda     $c104
963e: 20 88 83                     jsr     L8388
9641: cd 04 c1                     cmp     $c104
9644: f0 e4                        beq     L962A
9646: 20 23 80     L9646           jsr     brk_with_prefix_disc
9649: c8                           iny
964a: 63 68 61 6e+                 .zstr   “changed”

9652: 29 c0        my_FINDV        and     #$c0
9654: d0 06                        bne     L965C
9656: 20 eb 83                     jsr     savita
9659: 4c b4 95                     jmp     L95B4

965c: 20 10 84     L965C           jsr     savit
965f: 86 ba                        stx     $ba
9661: 84 bb                        sty     $bb
9663: 85 b4                        sta     $b4
9665: 24 b4                        bit     $b4
9667: 08                           php
9668: 20 f3 80                     jsr     L80F3
966b: 20 9e a4                     jsr     LA49E
966e: 20 8e 82                     jsr     lookup
9671: b0 24                        bcs     L9697
9673: 28                           plp
9674: 50 03                        bvc     L9679
9676: a9 00                        lda     #$00
9678: 60                           rts

9679: 08           L9679           php
967a: a9 00                        lda     #$00
967c: a2 07                        ldx     #$07
967e: 95 bc        L967E           sta     $bc,X
9680: 9d 74 c2                     sta     $c274,X
9683: ca                           dex
9684: 10 f8                        bpl     L967E
9686: c6 be                        dec     $be
9688: c6 bf                        dec     $bf
968a: ce 76 c2                     dec     $c276
968d: ce 77 c2                     dec     $c277
9690: a9 40                        lda     #$40
9692: 85 c3                        sta     $c3
9694: 20 4e 8a                     jsr     L8A4E
9697: 28           L9697           plp
9698: 08                           php
9699: 70 03                        bvs     L969E
969b: 20 4b a5                     jsr     LA54B
969e: 20 64 97     L969E           jsr     L9764
96a1: 90 0e                        bcc     L96B1
96a3: b9 0c c3     L96A3           lda     $c30c,Y
96a6: 10 20                        bpl     L96C8
96a8: 28                           plp
96a9: 08                           php
96aa: 30 1c                        bmi     L96C8
96ac: 20 5f 97                     jsr     L975F
96af: b0 f2                        bcs     L96A3
96b1: ac c2 c2     L96B1           ldy     $c2c2
96b4: d0 1b                        bne     L96D1
96b6: 20 38 80                     jsr     estrng
96b9: c0                           .dd1    $c0
96ba: 54 6f 6f 20+                 .zstr   “Too many open”
96c8: 20 38 80     L96C8           jsr     estrng
96cb: c2                           .dd1    $c2
96cc: 4f 70 65 6e+                 .zstr   “Open”

96d1: a9 08        L96D1           lda     #$08
96d3: 8d c4 c2                     sta     $c2c4
96d6: bd 08 c0     L96D6           lda     $c008,X
96d9: 99 00 c3                     sta     $c300,Y
96dc: c8                           iny
96dd: bd 08 c1                     lda     $c108,X
96e0: 99 00 c3                     sta     $c300,Y
96e3: c8                           iny
96e4: e8                           inx
96e5: ce c4 c2                     dec     $c2c4
96e8: d0 ec                        bne     L96D6
96ea: a2 10                        ldx     #$10
96ec: a9 00                        lda     #$00
96ee: 99 00 c3     L96EE           sta     $c300,Y
96f1: c8                           iny
96f2: ca                           dex
96f3: d0 f9                        bne     L96EE
96f5: ad c2 c2                     lda     $c2c2
96f8: a8                           tay
96f9: 20 bd 81                     jsr     L81BD
96fc: 69 c3                        adc     #$c3
96fe: 99 13 c3                     sta     $c313,Y
9701: ad c1 c2                     lda     $c2c1
9704: 99 1b c3                     sta     $c31b,Y
9707: 0d c0 c2                     ora     $c2c0
970a: 8d c0 c2                     sta     $c2c0
970d: b9 09 c3                     lda     $c309,Y
9710: 69 ff                        adc     #$ff
9712: b9 0b c3                     lda     $c30b,Y
9715: 69 00                        adc     #$00
9717: 99 19 c3                     sta     $c319,Y
971a: b9 0d c3                     lda     $c30d,Y
971d: 09 0f                        ora     #$0f
971f: 69 00                        adc     #$00
9721: 20 b0 81                     jsr     L81B0
9724: 99 1a c3                     sta     $c31a,Y
9727: 28                           plp
9728: 50 2e                        bvc     L9758
972a: 30 08                        bmi     L9734
972c: a9 80                        lda     #$80
972e: 19 0c c3                     ora     $c30c,Y
9731: 99 0c c3                     sta     $c30c,Y
9734: b9 09 c3     L9734           lda     $c309,Y
9737: 99 14 c3                     sta     $c314,Y
973a: b9 0b c3                     lda     $c30b,Y
973d: 99 15 c3                     sta     $c315,Y
9740: b9 0d c3                     lda     $c30d,Y
9743: 20 b0 81                     jsr     L81B0
9746: 99 16 c3                     sta     $c316,Y
9749: a5 cd        L9749           lda     $cd
974b: 19 17 c3                     ora     $c317,Y
974e: 99 17 c3                     sta     $c317,Y
9751: 98                           tya
9752: 20 bd 81                     jsr     L81BD
9755: 09 10                        ora     #$10
9757: 60                           rts

9758: a9 20        L9758           lda     #$20
975a: 99 17 c3                     sta     $c317,Y
975d: d0 ea                        bne     L9749

975f: 8a           L975F           txa
9760: 48                           pha
9761: 4c a3 97                     jmp     L97A3

9764: a9 00        L9764           lda     #$00
9766: 8d c2 c2                     sta     $c2c2
9769: a9 08                        lda     #$08
976b: 85 b5                        sta     $b5
976d: 98                           tya
976e: aa                           tax
976f: a0 a0                        ldy     #$a0
9771: 84 b3        L9771           sty     $b3
9773: 8a                           txa
9774: 48                           pha
9775: a9 08                        lda     #$08
9777: 85 b2                        sta     $b2
9779: a5 b5                        lda     $b5
977b: 2c c0 c2                     bit     $c2c0
977e: f0 1d                        beq     L979D
9780: b9 17 c3                     lda     $c317,Y
9783: 45 cd                        eor     $cd
9785: 29 03                        and     #$03
9787: d0 1a                        bne     L97A3
9789: bd 08 c0     L9789           lda     $c008,X
978c: 59 00 c3                     eor     $c300,Y
978f: 29 7f                        and     #$7f
9791: d0 10                        bne     L97A3
9793: e8                           inx
9794: c8                           iny
9795: c8                           iny
9796: c6 b2                        dec     $b2
9798: d0 ef                        bne     L9789
979a: 38                           sec
979b: b0 10                        bcs     L97AD

979d: 8c c2 c2     L979D           sty     $c2c2
97a0: 8d c1 c2                     sta     $c2c1
97a3: 38           L97A3           sec
97a4: a5 b3                        lda     $b3
97a6: e9 20                        sbc     #$20
97a8: 85 b3                        sta     $b3
97aa: 06 b5                        asl     $b5
97ac: 18                           clc
97ad: 68           L97AD           pla
97ae: aa                           tax
97af: a4 b3                        ldy     $b3
97b1: a5 b5                        lda     $b5
97b3: b0 02                        bcs     L97B7
97b5: d0 ba                        bne     L9771
97b7: 60           L97B7           rts

97b8: 20 d4 97     L97B8           jsr     returnWithA0
97bb: ad c0 c2     L97BB           lda     $c2c0
97be: 48                           pha
97bf: a9 00                        lda     #$00
97c1: 8d 86 c2                     sta     $c286
97c4: 98                           tya
97c5: d0 05                        bne     L97CC
97c7: 20 a7 95                     jsr     L95A7
97ca: f0 03                        beq     L97CF
97cc: 20 b4 95     L97CC           jsr     L95B4
97cf: 68           L97CF           pla
97d0: 8d c0 c2                     sta     $c2c0
97d3: 60                           rts

97d4: 48           returnWithA0    pha
97d5: 8a                           txa
97d6: 48                           pha
97d7: a9 00                        lda     #$00
97d9: ba                           tsx
97da: 9d 09 01                     sta     $0109,X
97dd: 68                           pla
97de: aa                           tax
97df: 68                           pla
97e0: 60                           rts

97e1: 20 eb 83     my_ARGSV        jsr     savita
97e4: c9 ff                        cmp     #$ff
97e6: f0 d0                        beq     L97B8
97e8: c0 00                        cpy     #$00
97ea: f0 15                        beq     L9801
97ec: c9 04                        cmp     #$04
97ee: b0 2a                        bcs     L981A
97f0: 20 d4 97                     jsr     returnWithA0
97f3: c9 03                        cmp     #$03
97f5: f0 4a                        beq     L9841
97f7: c9 01                        cmp     #$01
97f9: d0 27                        bne     L9822
97fb: 20 27 99                     jsr     L9927
97fe: 4c c7 9a                     jmp     L9AC7

9801: c9 02        L9801           cmp     #$02
9803: b0 15                        bcs     L981A
9805: 20 d4 97                     jsr     returnWithA0
9808: f0 11                        beq     L981B
980a: a9 ff                        lda     #$ff
980c: 95 02                        sta     $02,X
980e: 95 03                        sta     $03,X
9810: ad d9 c2                     lda     $c2d9
9813: 95 00                        sta     $00,X
9815: ad da c2                     lda     $c2da
9818: 95 01                        sta     $01,X
981a: 60           L981A           rts

981b: a9 04        L981B           lda     #$04
981d: ba                           tsx
981e: 9d 05 01                     sta     $0105,X
9821: 60                           rts

9822: 20 27 99     L9822           jsr     L9927
9825: 8c c2 c2                     sty     $c2c2
9828: 0a                           asl     A
9829: 6d c2 c2                     adc     $c2c2
982c: a8                           tay
982d: b9 10 c3                     lda     $c310,Y
9830: 95 00                        sta     $00,X
9832: b9 11 c3                     lda     $c311,Y
9835: 95 01                        sta     $01,X
9837: b9 12 c3                     lda     $c312,Y
983a: 95 02                        sta     $02,X
983c: a9 00                        lda     #$00
983e: 95 03                        sta     $03,X
9840: 60                           rts

9841: 20 27 99     L9841           jsr     L9927
9844: 20 f9 99                     jsr     gbpb_putbytes
9847: a9 20                        lda     #$20
9849: 20 b2 99                     jsr     L99B2
984c: ac c2 c2                     ldy     $c2c2
984f: b9 14 c3                     lda     $c314,Y
9852: d5 00                        cmp     $00,X
9854: b9 15 c3                     lda     $c315,Y
9857: f5 01                        sbc     $01,X
9859: b9 16 c3                     lda     $c316,Y
985c: f5 02                        sbc     $02,X
985e: a9 00                        lda     #$00
9860: f5 03                        sbc     $03,X
9862: b0 2b                        bcs     L988F
9864: da                           phx
9865: 5a                           phy
9866: a2 fd                        ldx     #$fd
9868: b9 10 c3     L9868           lda     $c310,Y
986b: 9d a7 c1                     sta     $c1a7,X
986e: c8                           iny
986f: e8                           inx
9870: d0 f6                        bne     L9868
9872: 7a                           ply
9873: fa                           plx
9874: 20 c7 9a                     jsr     L9AC7
9877: ac c2 c2     L9877           ldy     $c2c2
987a: 5a                           phy
987b: a2 fd                        ldx     #$fd
987d: bd a7 c1     L987D           lda     $c1a7,X
9880: 99 10 c3                     sta     $c310,Y
9883: c8                           iny
9884: e8                           inx
9885: d0 f6                        bne     L987D
9887: ca                           dex
9888: 8e a6 c2                     stx     $c2a6
988b: 7a                           ply
988c: 4c 29 9c                     jmp     L9C29

988f: b5 00        L988F           lda     $00,X
9891: 99 14 c3                     sta     $c314,Y
9894: b5 01                        lda     $01,X
9896: 99 15 c3                     sta     $c315,Y
9899: b5 02                        lda     $02,X
989b: 99 16 c3                     sta     $c316,Y
989e: 20 ae 9a                     jsr     L9AAE
98a1: 90 03                        bcc     L98A6
98a3: 20 1b 9c                     jsr     L9C1B
98a6: 60           L98A6           rts

98a7: 48           L98A7           pha
98a8: 8e c5 c2                     stx     $c2c5
98ab: 98                           tya
98ac: 29 e0                        and     #$e0
98ae: 8d c2 c2                     sta     $c2c2
98b1: f0 13                        beq     L98C6
98b3: 20 bd 81                     jsr     L81BD
98b6: a8                           tay
98b7: a9 00                        lda     #$00
98b9: 38                           sec
98ba: 6a           L98BA           ror     A
98bb: 88                           dey
98bc: d0 fc                        bne     L98BA
98be: ac c2 c2                     ldy     $c2c2
98c1: 2c c0 c2                     bit     $c2c0
98c4: d0 03                        bne     L98C9
98c6: 68           L98C6           pla
98c7: 38                           sec
98c8: 60                           rts

98c9: 68           L98C9           pla
98ca: 18                           clc
98cb: 60                           rts

98cc: 48                           pha
98cd: 8a                           txa
98ce: 4c d3 98                     jmp     L98D3

98d1: 48           L98D1           pha
98d2: 98                           tya
98d3: c9 10        L98D3           cmp     #$10
98d5: 90 04                        bcc     L98DB
98d7: c9 18                        cmp     #$18
98d9: 90 02                        bcc     L98DD
98db: a9 08        L98DB           lda     #$08
98dd: 20 c3 81     L98DD           jsr     L81C3
98e0: a8                           tay
98e1: 68                           pla
98e2: 60                           rts

98e3: a9 c6        L98E3           lda     #$c6
98e5: 20 d9 a5                     jsr     LA5D9
98e8: 8a                           txa
98e9: f0 09                        beq     L98F4
98eb: 20 07 99                     jsr     L9907
98ee: d0 04                        bne     L98F4
98f0: a9 c6                        lda     #$c6
98f2: d0 0c                        bne     L9900

98f4: a9 c7        L98F4           lda     #$c7
98f6: 20 d9 a5                     jsr     LA5D9
98f9: 20 07 99                     jsr     L9907
98fc: d0 11                        bne     L990F
98fe: a9 c7                        lda     #$c7
9900: a2 00        L9900           ldx     #$00
9902: a0 00                        ldy     #$00
9904: 4c f4 ff                     jmp     $fff4

9907: 8a           L9907           txa
9908: a8                           tay
9909: 20 d1 98                     jsr     L98D1
990c: cc c2 c2                     cpy     $c2c2
990f: 60           L990F           rts

9910: 48                           pha
9911: 98                           tya
9912: 48                           pha
9913: 8a                           txa
9914: a8                           tay
9915: 20 27 99                     jsr     L9927
9918: 20 ae 9a                     jsr     L9AAE
991b: d0 04                        bne     L9921
991d: a2 ff                        ldx     #$ff
991f: d0 02                        bne     L9923

9921: a2 00        L9921           ldx     #$00
9923: 68           L9923           pla
9924: a8                           tay
9925: 68                           pla
9926: 60           L9926           rts

9927: 20 d1 98     L9927           jsr     L98D1
992a: 20 a7 98                     jsr     L98A7
992d: 90 f7                        bcc     L9926
992f: 20 e3 98                     jsr     L98E3
9932: 20 38 80                     jsr     estrng
9935: de                           .dd1    $de
9936: 43 68 61 6e+                 .zstr   “Channel”
993e: 20 38 80     L993E           jsr     estrng
9941: df                           .dd1    $df
9942: 45 4f 46 00                  .zstr   “EOF”

9946: 20 10 84     my_BGETV        jsr     savit
9949: 20 27 99                     jsr     L9927
994c: 20 ae 9a                     jsr     L9AAE
994f: d0 13                        bne     L9964
9951: b9 17 c3                     lda     $c317,Y
9954: 29 10                        and     #$10
9956: d0 e6                        bne     L993E
9958: a9 10                        lda     #$10
995a: 20 b2 99                     jsr     L99B2
995d: ae c5 c2                     ldx     $c2c5
9960: a9 fe                        lda     #$fe
9962: 38                           sec
9963: 60                           rts

9964: b9 17 c3     L9964           lda     $c317,Y
9967: 30 0a                        bmi     L9973
9969: 20 2b 96                     jsr     L962B
996c: 20 c1 99                     jsr     L99C1
996f: 38                           sec
9970: 20 c9 99                     jsr     L99C9
9973: b9 10 c3     L9973           lda     $c310,Y
9976: 85 ba                        sta     $ba
9978: b9 13 c3                     lda     $c313,Y
997b: 85 bb                        sta     $bb
997d: a0 00                        ldy     #$00
997f: b1 ba                        lda     ($ba),Y
9981: 48                           pha
9982: ac c2 c2                     ldy     $c2c2
9985: a6 ba                        ldx     $ba
9987: e8                           inx
9988: 8a                           txa
9989: 99 10 c3                     sta     $c310,Y
998c: d0 14                        bne     L99A2
998e: 18                           clc
998f: b9 11 c3                     lda     $c311,Y
9992: 69 01                        adc     #$01
9994: 99 11 c3                     sta     $c311,Y
9997: b9 12 c3                     lda     $c312,Y
999a: 69 00                        adc     #$00
999c: 99 12 c3                     sta     $c312,Y
999f: 20 b7 99                     jsr     L99B7
99a2: 18           L99A2           clc
99a3: 68                           pla
99a4: 60                           rts

99a5: 20 bd 9e     L99A5           jsr     L9EBD
99a8: 99 1d c3                     sta     $c31d,Y
99ab: a5 c3                        lda     $c3
99ad: 99 1c c3                     sta     $c31c,Y
99b0: a9 80        L99B0           lda     #$80
99b2: 19 17 c3     L99B2           ora     $c317,Y
99b5: d0 05                        bne     L99BC
99b7: a9 7f        L99B7           lda     #$7f
99b9: 39 17 c3     L99B9           and     $c317,Y
99bc: 99 17 c3     L99BC           sta     $c317,Y
99bf: 18                           clc
99c0: 60                           rts

99c1: b9 17 c3     L99C1           lda     $c317,Y
99c4: 29 40                        and     #$40
99c6: f0 30                        beq     L99F8
99c8: 18                           clc
99c9: 08           L99C9           php
99ca: ee dd c2                     inc     $c2dd
99cd: ac c2 c2                     ldy     $c2c2
99d0: a9 01                        lda     #$01
99d2: 85 c1                        sta     $c1
99d4: 20 64 9c                     jsr     L9C64
99d7: 28                           plp
99d8: b0 12                        bcs     L99EC
99da: b9 1d c3                     lda     $c31d,Y
99dd: 85 c2                        sta     $c2
99df: 20 19 88                     jsr     L8819
99e2: ac c2 c2                     ldy     $c2c2
99e5: a9 bf                        lda     #$bf
99e7: 20 b9 99                     jsr     L99B9
99ea: 90 06                        bcc     L99F2
99ec: 20 a5 99     L99EC           jsr     L99A5
99ef: 20 0c 88                     jsr     L880C
99f2: ce dd c2     L99F2           dec     $c2dd
99f5: ac c2 c2                     ldy     $c2c2
99f8: 60           L99F8           rts

99f9: b9 0c c3     gbpb_putbytes   lda     $c30c,Y
99fc: 30 08                        bmi     L9A06
99fe: b9 0e c3                     lda     $c30e,Y
9a01: 10 f5                        bpl     L99F8
9a03: 4c 50 a5                     jmp     LA550

9a06: 20 38 80     L9A06           jsr     estrng
9a09: c1                           .dd1    $c1
9a0a: 52 65 61 64+                 .zstr   “Read only”
9a14: 20 eb 83                     jsr     savita
9a17: 4c 20 9a                     jmp     L9A20

9a1a: 20 eb 83     my_BPUTV        jsr     savita
9a1d: 20 27 99                     jsr     L9927
9a20: 48           L9A20           pha
9a21: 20 f9 99                     jsr     gbpb_putbytes
9a24: 20 2b 96                     jsr     L962B
9a27: 98                           tya
9a28: 18                           clc
9a29: 69 04                        adc     #$04
9a2b: 20 af 9a                     jsr     L9AAF
9a2e: d0 66                        bne     L9A96
9a30: 20 13 96                     jsr     L9613
9a33: ae c3 c2                     ldx     $c2c3
9a36: 38                           sec
9a37: bd 07 c1                     lda     $c107,X
9a3a: fd 0f c1                     sbc     $c10f,X
9a3d: 48                           pha
9a3e: bd 06 c1                     lda     $c106,X
9a41: fd 0e c1                     sbc     $c10e,X
9a44: 29 03                        and     #$03
9a46: d9 1a c3                     cmp     $c31a,Y
9a49: d0 1f                        bne     L9A6A
9a4b: 68                           pla
9a4c: d9 19 c3                     cmp     $c319,Y
9a4f: d0 34                        bne     L9A85
9a51: 84 b4                        sty     $b4
9a53: 8c c2 c2                     sty     $c2c2
9a56: 20 e3 98     L9A56           jsr     L98E3
9a59: 20 38 80                     jsr     estrng
9a5c: bf                           .dd1    $bf
9a5d: 43 61 6e 27+                 .str    “Can't extend”
9a69: 00                           .dd1    $00

9a6a: b9 1a c3     L9A6A           lda     $c31a,Y
9a6d: 18                           clc
9a6e: 69 01                        adc     #$01
9a70: 99 1a c3                     sta     $c31a,Y
9a73: 0a                           asl     A
9a74: 0a                           asl     A
9a75: 0a                           asl     A
9a76: 0a                           asl     A
9a77: 5d 0e c1                     eor     $c10e,X
9a7a: 29 30                        and     #$30
9a7c: 5d 0e c1                     eor     $c10e,X
9a7f: 9d 0e c1                     sta     $c10e,X
9a82: 68                           pla
9a83: a9 00                        lda     #$00
9a85: 9d 0d c1     L9A85           sta     $c10d,X
9a88: 99 19 c3                     sta     $c319,Y
9a8b: a9 00                        lda     #$00
9a8d: 9d 0c c1                     sta     $c10c,X
9a90: 20 2b 94                     jsr     L942B
9a93: ac c2 c2                     ldy     $c2c2
9a96: 20 4b 9c     L9A96           jsr     L9C4B
9a99: b9 10 c3                     lda     $c310,Y
9a9c: 85 ba                        sta     $ba
9a9e: b9 13 c3                     lda     $c313,Y
9aa1: 85 bb                        sta     $bb
9aa3: 68                           pla
9aa4: a0 00                        ldy     #$00
9aa6: 91 ba                        sta     ($ba),Y
9aa8: ac c2 c2                     ldy     $c2c2
9aab: 4c 58 9e                     jmp     L9E58

9aae: 98           L9AAE           tya
9aaf: aa           L9AAF           tax
9ab0: b9 12 c3                     lda     $c312,Y
9ab3: dd 16 c3                     cmp     $c316,X
9ab6: d0 0e                        bne     L9AC6
9ab8: b9 11 c3                     lda     $c311,Y
9abb: dd 15 c3                     cmp     $c315,X
9abe: d0 06                        bne     L9AC6
9ac0: b9 10 c3                     lda     $c310,Y
9ac3: dd 14 c3                     cmp     $c314,X
9ac6: 60           L9AC6           rts

9ac7: a0 fc        L9AC7           ldy     #$fc
9ac9: b5 00        @lp             lda     $00,X
9acb: 99 a4 c1                     sta     $c1a4,Y
9ace: e8                           inx
9acf: c8                           iny
9ad0: d0 f7                        bne     @lp
9ad2: a9 01                        lda     #$01
9ad4: 48           L9AD4           pha
9ad5: ac c2 c2                     ldy     $c2c2
9ad8: 20 2b 96                     jsr     L962B
9adb: ad a3 c2                     lda     $c2a3
9ade: f0 06                        beq     L9AE6
9ae0: 9c a3 c2                     stz     $c2a3
9ae3: 8c a2 c2                     sty     $c2a2
9ae6: 20 ee 9b     L9AE6           jsr     L9BEE
9ae9: b0 78                        bcs     L9B63
9aeb: 20 f9 99                     jsr     gbpb_putbytes
9aee: 20 db 9b                     jsr     L9BDB
9af1: b0 70                        bcs     L9B63
9af3: 20 10 96                     jsr     L9610
9af6: ae c3 c2                     ldx     $c2c3
9af9: bd 07 c1                     lda     $c107,X
9afc: 38                           sec
9afd: fd 0f c1                     sbc     $c10f,X
9b00: 99 19 c3                     sta     $c319,Y
9b03: bd 06 c1                     lda     $c106,X
9b06: fd 0e c1                     sbc     $c10e,X
9b09: 29 03                        and     #$03
9b0b: 99 1a c3                     sta     $c31a,Y
9b0e: a9 00                        lda     #$00
9b10: 99 18 c3                     sta     $c318,Y
9b13: 20 db 9b                     jsr     L9BDB
9b16: 08                           php
9b17: b0 11                        bcs     L9B2A
9b19: 9c a0 c2                     stz     $c2a0
9b1c: b9 19 c3                     lda     $c319,Y
9b1f: 8d a1 c2                     sta     $c2a1
9b22: b9 1a c3                     lda     $c31a,Y
9b25: 8d a2 c2                     sta     $c2a2
9b28: 80 1c                        bra     L9B46

9b2a: 18           L9B2A           clc
9b2b: ad a0 c2                     lda     $c2a0
9b2e: 0d a1 c2                     ora     $c2a1
9b31: f0 08                        beq     L9B3B
9b33: b9 1a c3                     lda     $c31a,Y
9b36: cd a2 c2                     cmp     $c2a2
9b39: f0 0b                        beq     L9B46
9b3b: a9 00        L9B3B           lda     #$00
9b3d: 99 19 c3                     sta     $c319,Y
9b40: 6d a2 c2                     adc     $c2a2
9b43: 99 1a c3                     sta     $c31a,Y
9b46: 20 c4 81     L9B46           jsr     L81C4
9b49: 5d 0e c1                     eor     $c10e,X
9b4c: 29 30                        and     #$30
9b4e: 5d 0e c1                     eor     $c10e,X
9b51: 9d 0e c1                     sta     $c10e,X
9b54: b9 19 c3                     lda     $c319,Y
9b57: 9d 0d c1                     sta     $c10d,X
9b5a: 9e 0c c1                     stz     $c10c,X
9b5d: 5a                           phy
9b5e: 20 2b 94                     jsr     L942B
9b61: 7a                           ply
9b62: 28                           plp
9b63: 68           L9B63           pla
9b64: f0 74                        beq     L9BDA
9b66: 08                           php
9b67: 20 ee 9b                     jsr     L9BEE
9b6a: b0 62                        bcs     L9BCE
9b6c: 20 1b 9c                     jsr     L9C1B
9b6f: 20 4b 9c                     jsr     L9C4B
9b72: b9 10 c3                     lda     $c310,Y
9b75: 20 7b 9c                     jsr     L9C7B
9b78: a9 40                        lda     #$40
9b7a: 20 b2 99                     jsr     L99B2
9b7d: 38                           sec
9b7e: ad a1 c2                     lda     $c2a1
9b81: f9 15 c3                     sbc     $c315,Y
9b84: 85 c1                        sta     $c1
9b86: ad a2 c2                     lda     $c2a2
9b89: f9 16 c3                     sbc     $c316,Y
9b8c: aa                           tax
9b8d: 05 c1                        ora     $c1
9b8f: f0 2f                        beq     L9BC0
9b91: 8a                           txa
9b92: 20 c4 81                     jsr     L81C4
9b95: 19 1d c3                     ora     $c31d,Y
9b98: 85 c2                        sta     $c2
9b9a: 20 64 9c                     jsr     L9C64
9b9d: ad a0 c2                     lda     $c2a0
9ba0: f0 02                        beq     L9BA4
9ba2: c6 c0                        dec     $c0
9ba4: a9 80        L9BA4           lda     #$80
9ba6: 85 b2                        sta     $b2
9ba8: a9 a0                        lda     #$a0
9baa: 8d 96 c2                     sta     $c296
9bad: 20 9a 9e                     jsr     L9E9A
9bb0: a9 00                        lda     #$00
9bb2: 20 7b 9c                     jsr     L9C7B
9bb5: 20 0c 9c                     jsr     L9C0C
9bb8: 20 a5 99                     jsr     L99A5
9bbb: a9 bf                        lda     #$bf
9bbd: 20 b9 99                     jsr     L99B9
9bc0: 5a           L9BC0           phy
9bc1: c8                           iny
9bc2: c8                           iny
9bc3: c8                           iny
9bc4: c8                           iny
9bc5: 20 0c 9c                     jsr     L9C0C
9bc8: 7a                           ply
9bc9: a9 20                        lda     #$20
9bcb: 20 b2 99                     jsr     L99B2
9bce: 20 0c 9c     L9BCE           jsr     L9C0C
9bd1: 20 29 9c                     jsr     L9C29
9bd4: 28                           plp
9bd5: b0 03                        bcs     L9BDA
9bd7: 4c 56 9a                     jmp     L9A56

9bda: 60           L9BDA           rts

9bdb: b9 18 c3     L9BDB           lda     $c318,Y
9bde: cd a0 c2                     cmp     $c2a0
9be1: b9 19 c3                     lda     $c319,Y
9be4: ed a1 c2                     sbc     $c2a1
9be7: b9 1a c3                     lda     $c31a,Y
9bea: ed a2 c2                     sbc     $c2a2
9bed: 60                           rts

9bee: a9 00        L9BEE           lda     #$00
9bf0: cd a3 c2                     cmp     $c2a3
9bf3: d0 16                        bne     L9C0B
9bf5: b9 16 c3                     lda     $c316,Y
9bf8: cd a2 c2                     cmp     $c2a2
9bfb: d0 0e                        bne     L9C0B
9bfd: b9 15 c3                     lda     $c315,Y
9c00: cd a1 c2                     cmp     $c2a1
9c03: d0 06                        bne     L9C0B
9c05: b9 14 c3                     lda     $c314,Y
9c08: cd a0 c2                     cmp     $c2a0
9c0b: 60           L9C0B           rts

9c0c: 5a           L9C0C           phy
9c0d: a2 fd                        ldx     #$fd
9c0f: bd a3 c1     L9C0F           lda     $c1a3,X
9c12: 99 10 c3                     sta     $c310,Y
9c15: c8                           iny
9c16: e8                           inx
9c17: d0 f6                        bne     L9C0F
9c19: 7a                           ply
9c1a: 60           L9C1A           rts

9c1b: a2 02        L9C1B           ldx     #$02
9c1d: 5a                           phy
9c1e: b9 14 c3     L9C1E           lda     $c314,Y
9c21: 99 10 c3                     sta     $c310,Y
9c24: c8                           iny
9c25: ca                           dex
9c26: 10 f6                        bpl     L9C1E
9c28: 7a                           ply
9c29: a9 6f        L9C29           lda     #$6f
9c2b: 20 b9 99                     jsr     L99B9
9c2e: b9 0f c3                     lda     $c30f,Y
9c31: 79 11 c3                     adc     $c311,Y
9c34: aa                           tax
9c35: b9 0d c3                     lda     $c30d,Y
9c38: 29 03                        and     #$03
9c3a: 79 12 c3                     adc     $c312,Y
9c3d: d9 1d c3                     cmp     $c31d,Y
9c40: d0 d8                        bne     L9C1A
9c42: 8a                           txa
9c43: d9 1c c3                     cmp     $c31c,Y
9c46: d0 d2                        bne     L9C1A
9c48: 4c b0 99                     jmp     L99B0

9c4b: b9 17 c3     L9C4B           lda     $c317,Y
9c4e: 30 ca                        bmi     L9C1A
9c50: 20 c1 99                     jsr     L99C1
9c53: b9 14 c3                     lda     $c314,Y
9c56: d0 08                        bne     L9C60
9c58: 20 ae 9a                     jsr     L9AAE
9c5b: d0 03                        bne     L9C60
9c5d: 4c a5 99                     jmp     L99A5

9c60: 38           L9C60           sec
9c61: 4c c9 99                     jmp     L99C9

9c64: 64 bc        L9C64           stz     $bc
9c66: b9 13 c3                     lda     $c313,Y
9c69: 85 bd                        sta     $bd
9c6b: a9 ff                        lda     #$ff
9c6d: 8d 74 c2                     sta     $c274
9c70: 8d 75 c2                     sta     $c275
9c73: 64 c0                        stz     $c0
9c75: b9 1c c3                     lda     $c31c,Y
9c78: 85 c3                        sta     $c3
9c7a: 60                           rts

9c7b: 85 ba        L9C7B           sta     $ba
9c7d: b9 13 c3                     lda     $c313,Y
9c80: 85 bb                        sta     $bb
9c82: a9 00                        lda     #$00
9c84: 92 ba        L9C84           sta     ($ba)
9c86: e6 ba                        inc     $ba
9c88: d0 fa                        bne     L9C84
9c8a: 60                           rts

9c8b: 20 8c 9e     gbpb_rw_seqptr  jsr     TUBE_RELEASE_QQQ
9c8e: a2 03                        ldx     #$03
                   gbpb_seqptr_loop1
9c90: bd 69 c2                     lda     $c269,X
9c93: 9d a0 c2                     sta     $c2a0,X           ;MMFSDIF: this is B6,X
9c96: ca                           dex
9c97: 10 f7                        bpl     gbpb_seqptr_loop1
9c99: ac 60 c2                     ldy     WKSP261_TransAddr-1
9c9c: 20 27 99                     jsr     L9927             ;MMFSDIF: extra
9c9f: 20 2b 96                     jsr     L962B
9ca2: 28                           plp
9ca3: b0 05                        bcs     L9CAA
9ca5: a9 01                        lda     #$01
9ca7: 20 d4 9a                     jsr     L9AD4
9caa: a2 fc        L9CAA           ldx     #$fc
9cac: 5a                           phy
9cad: 18                           clc
9cae: b9 10 c3     L9CAE           lda     $c310,Y
9cb1: e8                           inx
9cb2: d0 02                        bne     L9CB6
9cb4: a9 00                        lda     #$00
9cb6: ca           L9CB6           dex
9cb7: 9d 6d c1                     sta     $c16d,X
9cba: 7d 69 c1                     adc     $c169,X
9cbd: 9d a4 c1                     sta     $c1a4,X
9cc0: c8                           iny
9cc1: e8                           inx
9cc2: d0 ea                        bne     L9CAE
9cc4: 7a                           ply
9cc5: 90 03                        bcc     L9CCA
9cc7: 8c a3 c2                     sty     $c2a3
9cca: 38           L9CCA           sec
9ccb: 20 5d a3                     jsr     gbpb_jmpsub
9cce: 08                           php
9ccf: 8a                           txa
9cd0: 20 d4 9a                     jsr     L9AD4
9cd3: 08                           php
9cd4: a2 7c                        ldx     #$7c
9cd6: 38                           sec
9cd7: bd 24 c2     L9CD7           lda     $c224,X
9cda: 48                           pha
9cdb: fd ed c1                     sbc     $c1ed,X
9cde: 95 48                        sta     $48,X
9ce0: 68                           pla
9ce1: 9d ed c1                     sta     $c1ed,X
9ce4: bd e5 c1                     lda     $c1e5,X
9ce7: 95 4c                        sta     $4c,X
9ce9: e8                           inx
9cea: 10 eb                        bpl     L9CD7
9cec: a2 7c                        ldx     #$7c
9cee: 38                           sec
9cef: bd e9 c1     L9CEF           lda     $c1e9,X
9cf2: f5 48                        sbc     $48,X
9cf4: 9d e9 c1                     sta     $c1e9,X
9cf7: e8                           inx
9cf8: 10 f5                        bpl     L9CEF
9cfa: b9 10 c3                     lda     $c310,Y
9cfd: f0 03                        beq     L9D02
9cff: 20 d1 9d                     jsr     L9DD1
9d02: a5 c5        L9D02           lda     $c5
9d04: 05 c6                        ora     $c6
9d06: d0 03                        bne     L9D0B
9d08: 4c 9c 9d                     jmp     L9D9C

9d0b: 20 c1 99     L9D0B           jsr     L99C1
9d0e: 20 b7 99                     jsr     L99B7
9d11: a9 00                        lda     #$00
9d13: 99 1c c3                     sta     $c31c,Y
9d16: 99 1d c3                     sta     $c31d,Y
9d19: 48                           pha
9d1a: ae 7f c2                     ldx     $c27f
9d1d: bd cf 9d                     lda     L9DCF,X
9d20: 8d 96 c2                     sta     $c296
9d23: 8a                           txa
9d24: d0 0e                        bne     L9D34
9d26: 20 ee 9b                     jsr     L9BEE
9d29: 90 08                        bcc     L9D33
9d2b: f0 06                        beq     L9D33
9d2d: 68                           pla
9d2e: a5 c4                        lda     $c4
9d30: 48                           pha
9d31: 64 c4                        stz     $c4
9d33: e8           L9D33           inx
9d34: b5 c4        L9D34           lda     $c4,X
9d36: 95 c0                        sta     $c0,X
9d38: b5 c8                        lda     $c8,X
9d3a: 95 bc                        sta     $bc,X
9d3c: b5 ca                        lda     $ca,X
9d3e: 9d 74 c2                     sta     $c274,X
9d41: ca                           dex
9d42: 10 f0                        bpl     L9D34
9d44: 20 bd 9e                     jsr     L9EBD
9d47: a9 40                        lda     #$40
9d49: 85 b2                        sta     $b2
9d4b: a5 c6                        lda     $c6
9d4d: 20 c4 81                     jsr     L81C4
9d50: 04 c2                        tsb     $c2
9d52: 20 9a 9e                     jsr     L9E9A
9d55: 5a                           phy
9d56: a2 7d                        ldx     #$7d
9d58: 18                           clc
9d59: b9 10 c3     L9D59           lda     $c310,Y
9d5c: 75 47                        adc     $47,X
9d5e: 99 10 c3                     sta     $c310,Y
9d61: c8                           iny
9d62: e8                           inx
9d63: 10 f4                        bpl     L9D59
9d65: 7a                           ply
9d66: 20 71 9e                     jsr     L9E71
9d69: 5a                           phy
9d6a: a2 7c                        ldx     #$7c
9d6c: 18                           clc
9d6d: b5 4c        L9D6D           lda     $4c,X
9d6f: 75 48                        adc     $48,X
9d71: 74 48                        stz     $48,X
9d73: 95 4c                        sta     $4c,X
9d75: 9d e5 c1                     sta     $c1e5,X
9d78: e8                           inx
9d79: 10 f2                        bpl     L9D6D
9d7b: 7a                           ply
9d7c: ad 7f c2                     lda     $c27f
9d7f: f0 18                        beq     L9D99
9d81: 20 a5 99                     jsr     L99A5
9d84: b9 10 c3                     lda     $c310,Y
9d87: d0 10                        bne     L9D99
9d89: 20 b7 99                     jsr     L99B7
9d8c: 98                           tya
9d8d: aa                           tax
9d8e: bd 1c c3                     lda     $c31c,X
9d91: d0 03                        bne     L9D96
9d93: de 1d c3                     dec     $c31d,X
9d96: de 1c c3     L9D96           dec     $c31c,X
9d99: 68           L9D99           pla
9d9a: 85 c4                        sta     $c4
9d9c: a5 c4        L9D9C           lda     $c4
9d9e: f0 03                        beq     L9DA3
9da0: 20 d1 9d                     jsr     L9DD1
9da3: 28           L9DA3           plp
9da4: b0 03                        bcs     L9DA9
9da6: 4c 56 9a                     jmp     L9A56

9da9: a2 fc        L9DA9           ldx     #$fc
9dab: 5a                           phy
9dac: bd cc ff     L9DAC           lda     $ffcc,X
9daf: 9d 65 c1                     sta     $c165,X
9db2: e8                           inx
9db3: d0 f7                        bne     L9DAC
9db5: 20 64 a4                     jsr     gbpb_wordB4_word107D
9db8: a0 0c                        ldy     #$0c
9dba: b9 60 c2     L9DBA           lda     WKSP261_TransAddr-1,Y
9dbd: 91 b4                        sta     ($b4),Y
9dbf: 88                           dey
9dc0: 10 f8                        bpl     L9DBA
9dc2: 7a                           ply
9dc3: 28                           plp
9dc4: b0 07                        bcs     L9DCD
9dc6: a9 10                        lda     #$10
9dc8: 20 b2 99                     jsr     L99B2
9dcb: 38                           sec
9dcc: 60                           rts

9dcd: 18           L9DCD           clc
9dce: 60                           rts

9dcf: a0 80        L9DCF           ldy     #$80
9dd1: 20 4b 9c     L9DD1           jsr     L9C4B
9dd4: b9 13 c3                     lda     $c313,Y
9dd7: 85 bb                        sta     $bb
9dd9: b9 10 c3                     lda     $c310,Y
9ddc: 85 ba                        sta     $ba
9dde: 5a                           phy
9ddf: 20 30 9e                     jsr     checkAddrAndClaimTube
9de2: 7a                           ply
9de3: a2 00        L9DE3           ldx     #$00
9de5: b5 c4        L9DE5           lda     $c4,X
9de7: d0 07                        bne     L9DF0
9de9: e8                           inx
9dea: e0 04                        cpx     #$04
9dec: 90 f7                        bcc     L9DE5
9dee: 80 3a                        bra     L9E2A

9df0: d6 c4        L9DF0           dec     $c4,X
9df2: ca                           dex
9df3: 10 fb                        bpl     L9DF0
9df5: 2c 81 c2                     bit     WKSP281_TubeClaimed
9df8: ad 7f c2                     lda     $c27f
9dfb: 70 0c                        bvs     L9E09
9dfd: d0 04                        bne     L9E03
9dff: b2 c8                        lda     ($c8)
9e01: 80 0b                        bra     L9E0E

9e03: b2 ba        L9E03           lda     ($ba)
9e05: 92 c8                        sta     ($c8)
9e07: 80 0e                        bra     L9E17

9e09: d0 07        L9E09           bne     L9E12
9e0b: ad e5 fe                     lda     sheila_TUBE_R3_data
9e0e: 92 ba        L9E0E           sta     ($ba)
9e10: 80 05                        bra     L9E17

9e12: b2 ba        L9E12           lda     ($ba)
9e14: 8d e5 fe                     sta     sheila_TUBE_R3_data
9e17: a2 7c        L9E17           ldx     #$7c
9e19: fe e5 c1     L9E19           inc     $c1e5,X
9e1c: f6 4c                        inc     $4c,X
9e1e: d0 03                        bne     L9E23
9e20: e8                           inx
9e21: 10 f6                        bpl     L9E19
9e23: 20 53 9e     L9E23           jsr     L9E53
9e26: a5 ba                        lda     $ba
9e28: d0 b9                        bne     L9DE3
9e2a: 5a           L9E2A           phy
9e2b: 20 8c 9e                     jsr     TUBE_RELEASE_QQQ
9e2e: 7a                           ply
9e2f: 60                           rts

                   checkAddrAndClaimTube
9e30: 9c 81 c2                     stz     WKSP281_TubeClaimed
9e33: ad 63 c2                     lda     WKSP261_TransAddr+2
9e36: 2d 64 c2                     and     WKSP261_TransAddr+3
9e39: 0d d6 c2                     ora     WKSP2D6_TubePresentIf0
9e3c: 1a                           inc     A
9e3d: f0 13                        beq     rts9E52
9e3f: ce 81 c2                     dec     WKSP281_TubeClaimed
9e42: 20 94 8f                     jsr     TUBE_CLAIM
9e45: ad 7f c2                     lda     $c27f
9e48: a2 61                        ldx     #<WKSP261_TransAddr
9e4a: a0 c2                        ldy     #>WKSP261_TransAddr
9e4c: 20 06 04                     jsr     TubeCode
9e4f: 20 52 9e                     jsr     rts9E52
9e52: 60           rts9E52         rts

9e53: ad 7f c2     L9E53           lda     $c27f
9e56: d0 05                        bne     L9E5D
9e58: a9 40        L9E58           lda     #$40
9e5a: 20 b2 99                     jsr     L99B2
9e5d: 98           L9E5D           tya
9e5e: aa                           tax
9e5f: e6 ba                        inc     $ba
9e61: fe 10 c3                     inc     $c310,X
9e64: d0 0b                        bne     L9E71
9e66: 20 b7 99                     jsr     L99B7
9e69: fe 11 c3                     inc     $c311,X
9e6c: d0 03                        bne     L9E71
9e6e: fe 12 c3                     inc     $c312,X
9e71: 20 ae 9a     L9E71           jsr     L9AAE
9e74: 90 15                        bcc     L9E8B
9e76: f0 13                        beq     L9E8B
9e78: a9 20                        lda     #$20
9e7a: 20 b2 99                     jsr     L99B2
9e7d: a2 02                        ldx     #$02
9e7f: 5a                           phy
9e80: b9 10 c3     L9E80           lda     $c310,Y
9e83: 99 14 c3                     sta     $c314,Y
9e86: c8                           iny
9e87: ca                           dex
9e88: 10 f6                        bpl     L9E80
9e8a: 7a                           ply
9e8b: 60           L9E8B           rts

                   TUBE_RELEASE_QQQ
9e8c: 2c 81 c2                     bit     WKSP281_TubeClaimed
9e8f: 10 08                        bpl     L9E99
9e91: 5a                           phy
9e92: 20 a3 8f                     jsr     L8FA3
9e95: 9c 81 c2                     stz     WKSP281_TubeClaimed
9e98: 7a                           ply
9e99: 60           L9E99           rts

9e9a: 5a           L9E9A           phy
9e9b: ee dd c2                     inc     $c2dd
9e9e: 20 20 88                     jsr     L8820
9ea1: ce dd c2                     dec     $c2dd
9ea4: 7a                           ply
9ea5: 60                           rts

                   gbpb_getbyteSAVEBYTE
9ea6: 20 ee 9b                     jsr     L9BEE
9ea9: b0 11                        bcs     L9EBC
9eab: 5a                           phy
9eac: a2 fd                        ldx     #$fd
9eae: b9 14 c3     L9EAE           lda     $c314,Y
9eb1: 9d a3 c1                     sta     $c1a3,X
9eb4: c8                           iny
9eb5: e8                           inx
9eb6: d0 f6                        bne     L9EAE
9eb8: 9c a3 c2                     stz     $c2a3
9ebb: 7a                           ply
9ebc: 60           L9EBC           rts

9ebd: 18           L9EBD           clc
9ebe: b9 0f c3                     lda     $c30f,Y
9ec1: 79 11 c3                     adc     $c311,Y
9ec4: 85 c3                        sta     $c3
9ec6: b9 0d c3                     lda     $c30d,Y
9ec9: 29 03                        and     #$03
9ecb: 79 12 c3                     adc     $c312,Y
9ece: 85 c2                        sta     $c2
9ed0: 60                           rts

9ed1: 98           cmd_dfs         tya
9ed2: a2 ff                        ldx     #$ff
9ed4: a0 10                        ldy     #$10
9ed6: 48           L9ED6           pha
9ed7: 20 7f 80                     jsr     vstrng
9eda: 0d 44 46 53+                 .str    $0d,“DFS 2.45”,$0d
9ee4: 86 bf                        stx     $bf
9ee6: 84 b7                        sty     $b7
9ee8: a9 00        L9EE8           lda     #$00
9eea: 85 b9                        sta     $b9
9eec: a0 02                        ldy     #$02
9eee: 20 91 9f                     jsr     L9F91
9ef1: 20 33 9f                     jsr     L9F33
9ef4: 20 dd a7                     jsr     LA7DD
9ef7: c6 b7                        dec     $b7
9ef9: d0 ed                        bne     L9EE8
9efb: 68                           pla
9efc: a8                           tay
9efd: a2 8e        L9EFD           ldx     #$8e
9eff: 4c ba 86                     jmp     L86BA

9f02: 98                           tya
9f03: a2 80                        ldx     #$80
9f05: a0 01                        ldy     #$01
9f07: d0 cd                        bne     L9ED6

9f09: 20 03 87     cmd_q           jsr     L8703
9f0c: f0 7d                        beq     L9F8B
9f0e: 20 49 81     L9F0E           jsr     L8149
9f11: 90 fb                        bcc     L9F0E
9f13: b0 e8                        bcs     L9EFD

9f15: 20 03 87     L9F15           jsr     L8703
9f18: d0 71                        bne     L9F8B
9f1a: 20 48 80     L9F1A           jsr     do_following_brk
9f1d: dc                           .dd1    $dc
9f1e: 53 79 6e 74+                 .str    “Syntax: ”

9f26: 86 b9                        stx     $b9
9f28: 20 33 9f                     jsr     L9F33
9f2b: a9 00                        lda     #$00
9f2d: 20 7f 9f                     jsr     L9F7F
9f30: 4c 00 01                     jmp     $0100

9f33: a6 bf        L9F33           ldx     $bf
9f35: a9 09                        lda     #$09
9f37: 85 b8                        sta     $b8
9f39: e8           L9F39           inx
9f3a: bd 1c 86                     lda     comTab,X
9f3d: 30 06                        bmi     L9F45
9f3f: 20 7f 9f                     jsr     L9F7F
9f42: 4c 39 9f                     jmp     L9F39

9f45: a4 b8        L9F45           ldy     $b8
9f47: c0 0c                        cpy     #$0c
9f49: f0 03                        beq     L9F4E
9f4b: 20 91 9f                     jsr     L9F91
9f4e: e8           L9F4E           inx
9f4f: e8                           inx
9f50: 86 bf                        stx     $bf
9f52: bd 1c 86                     lda     comTab,X
9f55: 20 5b 9f                     jsr     L9F5B
9f58: 20 be 81                     jsr     L81BE
9f5b: 20 eb 83     L9F5B           jsr     savita
9f5e: 29 0f                        and     #$0f
9f60: f0 29                        beq     L9F8B
9f62: a8                           tay
9f63: a9 20                        lda     #$20
9f65: 20 7f 9f                     jsr     L9F7F
9f68: a2 ff                        ldx     #$ff
9f6a: e8           L9F6A           inx
9f6b: bd 9e 9f                     lda     tblHelpTokens,X
9f6e: 10 fa                        bpl     L9F6A
9f70: 88                           dey
9f71: d0 f7                        bne     L9F6A
9f73: 29 7f                        and     #$7f
9f75: 20 7f 9f     L9F75           jsr     L9F7F
9f78: e8                           inx
9f79: bd 9e 9f                     lda     tblHelpTokens,X
9f7c: 10 f7                        bpl     L9F75
9f7e: 60                           rts

9f7f: 20 eb 83     L9F7F           jsr     savita
9f82: a6 b9                        ldx     $b9
9f84: f0 06                        beq     L9F8C
9f86: e6 b9                        inc     $b9
9f88: 9d 00 01                     sta     $0100,X
9f8b: 60           L9F8B           rts

9f8c: c6 b8        L9F8C           dec     $b8
9f8e: 4c a0 80                     jmp     pchr

9f91: a5 b9        L9F91           lda     $b9
9f93: d0 08                        bne     L9F9D
9f95: a9 20                        lda     #$20
9f97: 20 7f 9f     L9F97           jsr     L9F7F
9f9a: 88                           dey
9f9b: d0 fa                        bne     L9F97
9f9d: 60           L9F9D           rts

9f9e: bc           tblHelpTokens   .dd1    $bc
9f9f: 66 73 70 3e                  .str    “fsp>”
9fa3: bc                           .dd1    $bc
9fa4: 61 66 73 70+                 .str    “afsp>”
9fa9: a8                           .dd1    $a8
9faa: 4c 29                        .str    “L)”
9fac: bc                           .dd1    $bc
9fad: 73 6f 75 72+                 .str    “source> <dest.>”
9fbc: bc                           .dd1    $bc
9fbd: 6f 6c 64 20+                 .str    “old fsp> <new fsp>”
9fcf: a8                           .dd1    $a8
9fd0: 3c 64 69 72+                 .str    “<dir>)”
9fd6: a8                           .dd1    $a8
9fd7: 3c 64 72 69+                 .str    “<drive>)”
9fdf: bc                           .dd1    $bc
9fe0: 74 69 74 6c+                 .str    “title>”
9fe6: bc                           .dd1    $bc
9fe7: 64 72 69 76+                 .str    “drive> (40)(80)”
9ff6: b4                           .dd1    $b4
9ff7: 30 2f 38 30                  .str    “0/80”
9ffb: a8                           .dd1    $a8
9ffc: 3c 64 72 69+                 .str    “<drive>)...”
a007: a8                           .dd1    $a8
a008: 3c 72 6f 6d+                 .str    “<rom>)”
a00e: ff                           .dd1    $ff
a00f: 4c 2e 21 42+                 .str    “L.!BOOT”,$0d,“E.!BOOT”,$0d

a01f: 3c f0 0d     serv            bit     swrom_wksp_tab,X
a022: 10 03                        bpl     LA027
a024: 70 03                        bvs     LA029
a026: 60                           rts

a027: 70 26        LA027           bvs     @ret
a029: c9 12        LA029           cmp     #$12
a02b: f0 47                        beq     Serv18
a02d: c9 0b                        cmp     #$0b
a02f: 90 0a                        bcc     @lt0B
a031: c9 28                        cmp     #$28
a033: b0 1a                        bcs     @ret
a035: c9 21                        cmp     #$21
a037: 90 16                        bcc     @ret
a039: e9 16                        sbc     #$16
a03b: 0a           @lt0B           asl     A
a03c: aa                           tax
a03d: bd 51 a0                     lda     tblServ+1,X
a040: 48                           pha
a041: bd 50 a0                     lda     tblServ,X
a044: 48                           pha
a045: 8a                           txa
a046: a6 f4                        ldx     $f4
a048: 4a                           lsr     A
a049: c9 0b                        cmp     #$0b
a04b: 90 02                        bcc     @ret
a04d: 69 15                        adc     #$15
a04f: 60           @ret            rts

a050: 1a 86        tblServ         .dd2    ServNul-1         ;0
a052: 1a 86                        .dd2    ServNul-1         ;1
a054: 9f a1                        .dd2    Serv2-1           ;2
a056: 7b a0                        .dd2    Serv3-1           ;3
a058: d8 a1                        .dd2    Serv4-1           ;4
a05a: 1a 86                        .dd2    ServNul-1         ;5
a05c: 1a 86                        .dd2    ServNul-1         ;6
a05e: 1a 86                        .dd2    ServNul-1         ;7
a060: 0f a2                        .dd2    Serv8-1           ;8
a062: e0 a1                        .dd2    Serv9-1           ;9
a064: f3 a1                        .dd2    Serv10-1          ;10
a066: 77 a2                        .dd2    Serv21-1          ;21
a068: 7e a2                        .dd2    Serv22-1          ;22
a06a: 1a 86                        .dd2    ServNul-1         ;23
a06c: 86 a2                        .dd2    Serv24-1          ;24
a06e: 89 a2                        .dd2    Serv25-1          ;25
a070: af a2                        .dd2    Serv26-1          ;26
a072: 67 a2                        .dd2    Serv27-1          ;27

a074: 20 eb 83     Serv18          jsr     savita
a077: c0 04                        cpy     #$04
a079: f0 35                        beq     cmd_disk
a07b: 60                           rts

a07c: 20 eb 83     Serv3           jsr     savita
a07f: 84 b3                        sty     $b3
a081: a9 7a                        lda     #$7a
a083: 20 f4 ff                     jsr     $fff4
a086: 8a                           txa
a087: 30 10                        bmi     LA099
a089: c9 32                        cmp     #$32
a08b: f0 07                        beq     LA094
a08d: c9 61                        cmp     #$61
a08f: d0 be                        bne     @ret
a091: 20 db ad                     jsr     LADDB
a094: a9 78        LA094           lda     #$78
a096: 20 f4 ff                     jsr     $fff4
a099: a5 b3        LA099           lda     $b3
a09b: 20 7f 80                     jsr     vstrng
a09e: 41 63 6f 72+                 .str    “Acorn 1770 DFS”,$0d,$0d
a0ae: 80 02                        bra     LA0B2

a0b0: a9 ff        cmd_disk        lda     #$ff
a0b2: 20 d4 97     LA0B2           jsr     returnWithA0
a0b5: 48           LA0B5           pha
a0b6: a9 06                        lda     #$06
a0b8: 20 20 80                     jsr     jmpIndFSCV
a0bb: a2 0d                        ldx     #$0d
a0bd: bd e0 a5     LA0BD           lda     vtabb,X
a0c0: 9d 12 02                     sta     $0212,X
a0c3: ca                           dex
a0c4: 10 f7                        bpl     LA0BD
a0c6: a9 a8                        lda     #$a8
a0c8: 20 d9 a5                     jsr     LA5D9
a0cb: 86 b0                        stx     $b0
a0cd: 84 b1                        sty     $b1
a0cf: a2 07                        ldx     #$07
a0d1: a0 1b                        ldy     #$1b
a0d3: b9 d3 a5     LA0D3           lda     LA5D3,Y
a0d6: 91 b0                        sta     ($b0),Y
a0d8: c8                           iny
a0d9: b9 d3 a5                     lda     LA5D3,Y
a0dc: 91 b0                        sta     ($b0),Y
a0de: c8                           iny
a0df: a5 f4                        lda     $f4
a0e1: 91 b0                        sta     ($b0),Y
a0e3: c8                           iny
a0e4: ca                           dex
a0e5: d0 ec                        bne     LA0D3
a0e7: 8c 82 c2                     sty     $c282
a0ea: 8c 83 c2                     sty     $c283
a0ed: 86 cd                        stx     $cd
a0ef: a9 ff                        lda     #$ff
a0f1: 8d 87 c2                     sta     $c287
a0f4: a0 03                        ldy     #$03
a0f6: 99 8b c2     LA0F6           sta     $c28b,Y
a0f9: 88                           dey
a0fa: 10 fa                        bpl     LA0F6
a0fc: a2 0f                        ldx     #$0f
a0fe: 20 d3 a5                     jsr     LA5D3
a101: 20 ae a5                     jsr     LA5AE
a104: a0 d3                        ldy     #$d3
a106: b1 b0                        lda     ($b0),Y
a108: 10 33                        bpl     LA13D
a10a: 68                           pla
a10b: 48                           pha
a10c: f0 2f                        beq     LA13D
a10e: a0 d4                        ldy     #$d4
a110: b1 b0                        lda     ($b0),Y
a112: 30 57                        bmi     LA16B
a114: 20 9e a5                     jsr     LA59E
a117: a0 00                        ldy     #$00
a119: b1 b0        LA119           lda     ($b0),Y
a11b: c0 c0                        cpy     #$c0
a11d: 90 05                        bcc     LA124
a11f: 99 00 c2                     sta     $c200,Y
a122: b0 03                        bcs     LA127

a124: 99 00 c3     LA124           sta     $c300,Y
a127: 88           LA127           dey
a128: d0 ef                        bne     LA119
a12a: a9 a0                        lda     #$a0
a12c: a8           LA12C           tay
a12d: 48                           pha
a12e: a9 3f                        lda     #$3f
a130: 20 b9 99                     jsr     L99B9
a133: 68                           pla
a134: 99 1d c3                     sta     $c31d,Y
a137: e9 1f                        sbc     #$1f
a139: d0 f1                        bne     LA12C
a13b: f0 2e                        beq     LA16B

a13d: 20 9e a5     LA13D           jsr     LA59E
a140: a9 24                        lda     #$24
a142: 8d c9 c2                     sta     $c2c9
a145: 8d cb c2                     sta     $c2cb
a148: a0 00                        ldy     #$00
a14a: 8c ca c2                     sty     $c2ca
a14d: 8c cc c2                     sty     $c2cc
a150: a0 00                        ldy     #$00
a152: 8c c0 c2                     sty     $c2c0
a155: a2 03                        ldx     #$03
a157: 98                           tya
a158: 9d de c2     LA158           sta     $c2de,X
a15b: ca                           dex
a15c: d0 fa                        bne     LA158
a15e: 88                           dey
a15f: 8c c7 c2                     sty     $c2c7
a162: 8c c6 c2                     sty     $c2c6
a165: 8c dd c2                     sty     $c2dd
a168: 8c a6 c2                     sty     $c2a6
a16b: 20 57 8f     LA16B           jsr     L8F57
a16e: 68                           pla
a16f: d0 1b                        bne     LA18C
a171: a9 04                        lda     #$04
a173: 0d de c2                     ora     $c2de
a176: 8d de c2                     sta     $c2de
a179: 20 3a 94                     jsr     L943A
a17c: a9 fb                        lda     #$fb
a17e: 2d de c2                     and     $c2de
a181: 8d de c2                     sta     $c2de
a184: ad 06 c1                     lda     $c106
a187: 20 be 81                     jsr     L81BE
a18a: d0 01                        bne     LA18D
a18c: 60           LA18C           rts

a18d: a0 a0        LA18D           ldy     #$a0
a18f: a2 0f                        ldx     #$0f
a191: c9 02                        cmp     #$02
a193: 90 08                        bcc     LA19D
a195: f0 04                        beq     LA19B
a197: a2 17                        ldx     #$17
a199: d0 02                        bne     LA19D

a19b: a2 19        LA19B           ldx     #$19
a19d: 4c f7 ff     LA19D           jmp     $fff7

a1a0: bd f0 0d     Serv2           lda     swrom_wksp_tab,X
a1a3: c9 dc                        cmp     #$dc
a1a5: 90 04                        bcc     LA1AB
a1a7: 98                           tya
a1a8: 9d f0 0d                     sta     swrom_wksp_tab,X
a1ab: 5a           LA1AB           phy
a1ac: 85 b1                        sta     $b1
a1ae: 64 b0                        stz     $b0
a1b0: a9 fd                        lda     #$fd
a1b2: 20 d9 a5                     jsr     LA5D9
a1b5: ca                           dex
a1b6: 8a                           txa
a1b7: a0 d3                        ldy     #$d3
a1b9: 31 b0                        and     ($b0),Y
a1bb: 91 b0                        sta     ($b0),Y
a1bd: 08                           php
a1be: c8                           iny
a1bf: 28                           plp
a1c0: 10 07                        bpl     LA1C9
a1c2: b1 b0                        lda     ($b0),Y
a1c4: 10 03                        bpl     LA1C9
a1c6: 20 2a 89                     jsr     L892A
a1c9: a9 00        LA1C9           lda     #$00
a1cb: 91 b0                        sta     ($b0),Y
a1cd: a9 02                        lda     #$02
a1cf: a6 f4                        ldx     $f4
a1d1: 7a                           ply
a1d2: 3c f0 0d                     bit     swrom_wksp_tab,X
a1d5: 30 01                        bmi     LA1D8
a1d7: c8                           iny
a1d8: 60           LA1D8           rts

a1d9: 20 eb 83     Serv4           jsr     savita
a1dc: a2 7e                        ldx     #$7e
a1de: 4c ba 86     LA1DE           jmp     L86BA

a1e1: 20 eb 83     Serv9           jsr     savita
a1e4: b1 f2                        lda     ($f2),Y
a1e6: a2 8e                        ldx     #$8e
a1e8: c9 0d                        cmp     #$0d
a1ea: d0 f2                        bne     LA1DE
a1ec: 98                           tya
a1ed: e8                           inx
a1ee: e8                           inx
a1ef: a0 01                        ldy     #$01
a1f1: 4c d6 9e                     jmp     L9ED6

a1f4: 20 ae a5     Serv10          jsr     LA5AE
a1f7: a0 00                        ldy     #$00
a1f9: 20 bb 97                     jsr     L97BB
a1fc: 20 2a 89                     jsr     L892A
a1ff: 20 ae a5                     jsr     LA5AE
a202: a0 d4                        ldy     #$d4
a204: a9 00                        lda     #$00
a206: 91 b0                        sta     ($b0),Y
a208: 60                           rts

a209: a9                           .dd1    $a9
a20a: 0a                           .dd1    $0a

a20b: ba           LA20B           tsx
a20c: 9d 05 01                     sta     $0105,X
a20f: 60                           rts

a210: 20 eb 83     Serv8           jsr     savita
a213: 20 d4 97                     jsr     returnWithA0
a216: a4 ef                        ldy     $ef
a218: 30 f1                        bmi     LA20B
a21a: c0 7d                        cpy     #$7d
a21c: 90 ed                        bcc     LA20B
a21e: aa                           tax
a21f: 20 ae a5                     jsr     LA5AE
a222: a0 d4                        ldy     #$d4
a224: b1 b0                        lda     ($b0),Y
a226: 48                           pha
a227: da                           phx
a228: 68                           pla
a229: fa                           plx
a22a: 10 df                        bpl     LA20B
a22c: a6 f0                        ldx     $f0
a22e: 86 c7                        stx     $c7
a230: a6 f1                        ldx     $f1
a232: 86 c8                        stx     $c8
a234: c8                           iny
a235: 10 07                        bpl     LA23E
a237: a6 c7                        ldx     $c7
a239: a4 c8                        ldy     $c8
a23b: 4c f4 91                     jmp     L91F4

a23e: 20 52 8b     LA23E           jsr     L8B52
a241: 20 88 83                     jsr     L8388
a244: c8                           iny
a245: 30 08                        bmi     LA24F
a247: a0 00                        ldy     #$00
a249: ad 04 c1                     lda     $c104
a24c: 91 c7                        sta     ($c7),Y
a24e: 60                           rts

a24f: a9 00        LA24F           lda     #$00
a251: a8                           tay
a252: 91 c7                        sta     ($c7),Y
a254: c8                           iny
a255: ad 07 c1                     lda     $c107
a258: 91 c7                        sta     ($c7),Y
a25a: c8                           iny
a25b: ad 06 c1                     lda     $c106
a25e: 29 03                        and     #$03
a260: 91 c7                        sta     ($c7),Y
a262: c8                           iny
a263: a9 00                        lda     #$00
a265: 91 c7                        sta     ($c7),Y
a267: 60                           rts

a268: 20 eb 83     Serv27          jsr     savita
a26b: 20 ae a5                     jsr     LA5AE
a26e: a0 d4                        ldy     #$d4
a270: b1 b0                        lda     ($b0),Y
a272: 10 03                        bpl     LA277
a274: 8d 82 c2                     sta     $c282
a277: 60           LA277           rts

a278: c0 ca        Serv21          cpy     #$ca
a27a: b0 02                        bcs     LA27E
a27c: a0 ca                        ldy     #$ca
a27e: 60           LA27E           rts

a27f: 98           Serv22          tya
a280: 9d f0 0d                     sta     swrom_wksp_tab,X
a283: a9 22                        lda     #$22
a285: c8                           iny
a286: 60                           rts

a287: 88           Serv24          dey
a288: 88                           dey
a289: 60                           rts

a28a: a2 15        Serv25          ldx     #$15
a28c: bd 9a a2     LA28C           lda     LA29A,X
a28f: 91 f2                        sta     ($f2),Y
a291: c8                           iny
a292: ca                           dex
a293: 10 f7                        bpl     LA28C
a295: a9 25                        lda     #$25
a297: a6 f4                        ldx     $f4
a299: 60                           rts

a29a: 04           LA29A           .dd1    $04
a29b: 15                           .dd1    $15
a29c: 11                           .dd1    $11
a29d: 20 20 20 20+                 .str    “    CSID”
a2a5: 04                           .dd1    $04
a2a6: 15                           .dd1    $15
a2a7: 11                           .dd1    $11
a2a8: 20 20 20 20+                 .str    “    KSID”

a2b0: 5a           Serv26          phy
a2b1: 20 ae a5                     jsr     LA5AE
a2b4: ae c0 c2                     ldx     $c2c0
a2b7: a0 d4                        ldy     #$d4
a2b9: b1 b0                        lda     ($b0),Y
a2bb: 30 0d                        bmi     LA2CA
a2bd: a0 c0                        ldy     #$c0
a2bf: b1 b0                        lda     ($b0),Y
a2c1: 29 f8                        and     #$f8
a2c3: f0 0a                        beq     LA2CF
a2c5: a9 ff                        lda     #$ff
a2c7: 20 b5 a0                     jsr     LA0B5
a2ca: a0 00        LA2CA           ldy     #$00
a2cc: 20 b4 95                     jsr     L95B4
a2cf: 7a           LA2CF           ply
a2d0: a6 f4                        ldx     $f4
a2d2: a9 26                        lda     #$26
a2d4: 60                           rts

a2d5: 20 10 84     myFILEV         jsr     savit
a2d8: 48                           pha
a2d9: 20 9e a4                     jsr     LA49E
a2dc: 86 b0                        stx     $b0
a2de: 8e db c2                     stx     $c2db
a2e1: 84 b1                        sty     $b1
a2e3: 8c dc c2                     sty     $c2dc
a2e6: a2 00                        ldx     #$00
a2e8: a0 00                        ldy     #$00
a2ea: 20 e3 80                     jsr     L80E3
a2ed: 20 d3 80     LA2ED           jsr     L80D3
a2f0: c0 12                        cpy     #$12
a2f2: d0 f9                        bne     LA2ED
a2f4: 68                           pla
a2f5: aa                           tax
a2f6: e8                           inx
a2f7: e0 09                        cpx     #$09
a2f9: b0 08                        bcs     LA303
a2fb: bd 24 a6                     lda     LA624,X
a2fe: 48                           pha
a2ff: bd 1b a6                     lda     LA61B,X
a302: 48                           pha
a303: a9 00        LA303           lda     #$00
a305: 60                           rts

a306: c9 0c        my_FSCV         cmp     #$0c
a308: b0 f9                        bcs     LA303
a30a: 86 b5                        stx     $b5
a30c: aa                           tax
a30d: bd 0f a6                     lda     LA60F,X
a310: 48                           pha
a311: bd 03 a6                     lda     LA603,X
a314: 48                           pha
a315: 8a                           txa
a316: a6 b5                        ldx     $b5
a318: 60           rtsA318         rts

a319: c9 09        my_GBPBV        cmp     #$09              ;check reason code 
a31b: b0 fb                        bcs     rtsA318           ;if >= 9 exit 
a31d: 20 eb 83                     jsr     savita
a320: 20 d4 97                     jsr     returnWithA0
a323: 8e 7d c2                     stx     $c27d
a326: 8c 7e c2                     sty     $c27e
a329: a8                           tay
a32a: 20 33 a3                     jsr     gbpb_gosub
a32d: 08                           php
a32e: 20 8c 9e                     jsr     TUBE_RELEASE_QQQ
a331: 28                           plp
a332: 60                           rts

a333: b9 2d a6     gbpb_gosub      lda     gbpbv_table1,Y
a336: 8d d7 c2                     sta     $c2d7
a339: b9 36 a6                     lda     gbpbv_table2,Y
a33c: 8d d8 c2                     sta     $c2d8
a33f: b9 3f a6                     lda     gbpbv_table3,Y    ;3 bit flags: bit 2=tube op
a342: 4a                           lsr     A
a343: 08                           php                       ;Save bit 0 (0=write new seq ptr)
a344: 4a                           lsr     A
a345: 08                           php                       ;Save bit 1 (1=read/write seq ptr)
a346: 8d 7f c2                     sta     $c27f             ;save Tube operation
a349: 20 64 a4                     jsr     gbpb_wordB4_word107D ;(B4) -> param blk
a34c: a0 0c                        ldy     #$0c              ;MMFSDIF: set in fn above TODO: opt?
                   gbpb_ctlblk_loop
a34e: b1 b4                        lda     ($b4),Y
a350: 99 60 c2                     sta     WKSP261_TransAddr-1,Y
a353: 88                           dey
a354: 10 f8                        bpl     gbpb_ctlblk_loop
a356: 20 30 9e                     jsr     checkAddrAndClaimTube
a359: 28                           plp
a35a: b0 04                        bcs     jgbpb_rw_seqptr
a35c: 28                           plp
a35d: 6c d7 c2     gbpb_jmpsub     jmp     ($c2d7)

a360: 4c 8b 9c     jgbpb_rw_seqptr jmp     gbpb_rw_seqptr    ;MMFSDIF: moved the gbpb_rw_seqptr routine

a363: 20 56 a4     LA363           jsr     LA456
a366: 30 0d                        bmi     LA375
a368: ac 60 c2     LA368           ldy     WKSP261_TransAddr-1
a36b: 20 5d a3                     jsr     gbpb_jmpsub
a36e: b0 0d                        bcs     LA37D
a370: a2 09                        ldx     #$09
a372: 20 4a a4                     jsr     LA44A
a375: a2 05        LA375           ldx     #$05
a377: 20 4a a4                     jsr     LA44A
a37a: d0 ec                        bne     LA368
a37c: 18                           clc
a37d: 08           LA37D           php
a37e: 20 56 a4                     jsr     LA456
a381: a2 05                        ldx     #$05
a383: 20 4a a4                     jsr     LA44A
a386: a0 0c                        ldy     #$0c
a388: 20 64 a4                     jsr     gbpb_wordB4_word107D
a38b: b9 60 c2     LA38B           lda     WKSP261_TransAddr-1,Y
a38e: 91 b4                        sta     ($b4),Y
a390: 88                           dey
a391: 10 f8                        bpl     LA38B
a393: 28                           plp
a394: 60                           rts

                   gbpb_rdfiles_curdir
a395: 20 52 8b                     jsr     L8B52
a398: 20 42 94                     jsr     L9442
a39b: a9 a7                        lda     #$a7
a39d: 8d d7 c2                     sta     $c2d7
a3a0: a9 a3                        lda     #$a3
a3a2: 8d d8 c2                     sta     $c2d8
a3a5: d0 bc                        bne     LA363

a3a7: ac 69 c2                     ldy     $c269
a3aa: cc 05 c1     LA3AA           cpy     $c105
a3ad: b0 28                        bcs     LA3D7
a3af: b9 0f c0                     lda     $c00f,Y
a3b2: 20 2f 83                     jsr     L832F
a3b5: 45 cc                        eor     $cc
a3b7: b0 02                        bcs     LA3BB
a3b9: 29 df                        and     #$df
a3bb: 29 7f        LA3BB           and     #$7f
a3bd: f0 05                        beq     LA3C4
a3bf: 20 91 87                     jsr     iny8
a3c2: d0 e6                        bne     LA3AA
a3c4: a9 07        LA3C4           lda     #$07
a3c6: 20 71 a4                     jsr     LA471
a3c9: 85 b0                        sta     $b0
a3cb: b9 08 c0     LA3CB           lda     $c008,Y
a3ce: 20 71 a4                     jsr     LA471
a3d1: c8                           iny
a3d2: c6 b0                        dec     $b0
a3d4: d0 f5                        bne     LA3CB
a3d6: 18                           clc
a3d7: 8c 69 c2     LA3D7           sty     $c269
a3da: ad 04 c1                     lda     $c104
a3dd: 8d 60 c2                     sta     WKSP261_TransAddr-1
a3e0: 60                           rts

                   gbpb_getmediatitle
a3e1: 20 52 8b                     jsr     L8B52
a3e4: 20 42 94                     jsr     L9442
a3e7: a9 0c                        lda     #$0c
a3e9: 20 71 a4                     jsr     LA471
a3ec: a0 00                        ldy     #$00
a3ee: c0 08        LA3EE           cpy     #$08
a3f0: b0 05                        bcs     LA3F7
a3f2: b9 00 c0                     lda     $c000,Y
a3f5: 90 03                        bcc     LA3FA

a3f7: b9 f8 c0     LA3F7           lda     $c0f8,Y
a3fa: 20 71 a4     LA3FA           jsr     LA471
a3fd: c8                           iny
a3fe: c0 0c                        cpy     #$0c
a400: d0 ec                        bne     LA3EE
a402: ad 06 c1                     lda     $c106
a405: 20 be 81                     jsr     L81BE
a408: 20 71 a4                     jsr     LA471
a40b: a5 cd                        lda     $cd
a40d: 4c 71 a4                     jmp     LA471

                   gbpb_rdcurdirdevice
a410: 20 6f a4                     jsr     LA46F
a413: ad ca c2                     lda     $c2ca
a416: 09 30                        ora     #$30
a418: 20 71 a4                     jsr     LA471
a41b: 20 6f a4                     jsr     LA46F
a41e: ad c9 c2                     lda     $c2c9
a421: d0 4e                        bne     LA471
                   gbpb_rdcurlibdevice
a423: 20 6f a4                     jsr     LA46F
a426: ad cc c2                     lda     $c2cc
a429: 09 30                        ora     #$30
a42b: 20 71 a4                     jsr     LA471
a42e: 20 6f a4                     jsr     LA46F
a431: ad cb c2                     lda     $c2cb
a434: d0 3b                        bne     LA471
a436: 48           LA436           pha
a437: ad 61 c2                     lda     WKSP261_TransAddr
a43a: 85 b8                        sta     $b8
a43c: ad 62 c2                     lda     WKSP261_TransAddr+1
a43f: 85 b9                        sta     $b9
a441: a2 00                        ldx     #$00
a443: 68                           pla
a444: 60                           rts

a445: 20 eb 83     LA445           jsr     savita
a448: a2 01                        ldx     #$01
a44a: a0 04        LA44A           ldy     #$04
a44c: fe 60 c2     LA44C           inc     WKSP261_TransAddr-1,X
a44f: d0 04                        bne     LA455
a451: e8                           inx
a452: 88                           dey
a453: d0 f7                        bne     LA44C
a455: 60           LA455           rts

a456: a2 03        LA456           ldx     #$03
a458: a9 ff        LA458           lda     #$ff
a45a: 5d 65 c2                     eor     $c265,X
a45d: 9d 65 c2                     sta     $c265,X
a460: ca                           dex
a461: 10 f5                        bpl     LA458
a463: 60                           rts

                   gbpb_wordB4_word107D
a464: ad 7d c2                     lda     $c27d
a467: 85 b4                        sta     $b4
a469: ad 7e c2                     lda     $c27e
a46c: 85 b5                        sta     $b5
a46e: 60                           rts

a46f: a9 01        LA46F           lda     #$01
a471: 2c 81 c2     LA471           bit     WKSP281_TubeClaimed
a474: 10 05                        bpl     LA47B
a476: 8d e5 fe                     sta     sheila_TUBE_R3_data
a479: 30 ca                        bmi     LA445

a47b: 20 36 a4     LA47B           jsr     LA436
a47e: 81 b8                        sta     ($b8,X)
a480: 4c 45 a4                     jmp     LA445

a483: 2c 81 c2                     bit     WKSP281_TubeClaimed
a486: 10 06                        bpl     LA48E
a488: ad e5 fe                     lda     sheila_TUBE_R3_data
a48b: 4c 45 a4                     jmp     LA445

a48e: 20 36 a4     LA48E           jsr     LA436
a491: a1 b8                        lda     ($b8,X)
a493: 4c 45 a4                     jmp     LA445

a496: 2c c7 c2                     bit     $c2c7
a499: 30 03                        bmi     LA49E
a49b: ce c7 c2                     dec     $c2c7
a49e: a9 ff        LA49E           lda     #$ff
a4a0: 8d ce c2                     sta     $c2ce
a4a3: 8d cd c2     LA4A3           sta     $c2cd
a4a6: 60                           rts

a4a7: a9 2a        LA4A7           lda     #$2a
a4a9: 8d ce c2                     sta     $c2ce
a4ac: a9 23                        lda     #$23
a4ae: d0 f3                        bne     LA4A3

a4b0: 20 69 a5                     jsr     LA569
a4b3: 20 8e 83                     jsr     L838E
a4b6: a9 01                        lda     #$01
a4b8: 60                           rts

a4b9: 20 46 a5                     jsr     LA546
a4bc: 20 8e 83                     jsr     L838E
a4bf: 20 12 83                     jsr     L8312
a4c2: 90 24                        bcc     LA4E8
a4c4: 20 69 a5                     jsr     LA569
a4c7: 20 ee a4                     jsr     LA4EE
a4ca: 20 0a a5                     jsr     LA50A
a4cd: 50 16                        bvc     LA4E5
a4cf: 20 69 a5                     jsr     LA569
a4d2: 20 0a a5                     jsr     LA50A
a4d5: 50 11                        bvc     LA4E8
a4d7: 20 69 a5                     jsr     LA569
a4da: 20 ee a4                     jsr     LA4EE
a4dd: 50 09                        bvc     LA4E8
a4df: 20 69 a5                     jsr     LA569
a4e2: 20 5e a5                     jsr     LA55E
a4e5: 20 2d a5     LA4E5           jsr     LA52D
a4e8: 20 ae 89     LA4E8           jsr     L89AE
a4eb: a9 01                        lda     #$01
a4ed: 60                           rts

a4ee: 20 eb 83     LA4EE           jsr     savita
a4f1: a0 02                        ldy     #$02
a4f3: b1 b0                        lda     ($b0),Y
a4f5: 9d 08 c1                     sta     $c108,X
a4f8: c8                           iny
a4f9: b1 b0                        lda     ($b0),Y
a4fb: 9d 09 c1                     sta     $c109,X
a4fe: c8                           iny
a4ff: b1 b0                        lda     ($b0),Y
a501: 0a                           asl     A
a502: 0a                           asl     A
a503: 5d 0e c1                     eor     $c10e,X
a506: 29 0c                        and     #$0c
a508: 10 1b                        bpl     LA525

a50a: 20 eb 83     LA50A           jsr     savita
a50d: a0 06                        ldy     #$06
a50f: b1 b0                        lda     ($b0),Y
a511: 9d 0a c1                     sta     $c10a,X
a514: c8                           iny
a515: b1 b0                        lda     ($b0),Y
a517: 9d 0b c1                     sta     $c10b,X
a51a: c8                           iny
a51b: b1 b0                        lda     ($b0),Y
a51d: 6a                           ror     A
a51e: 6a                           ror     A
a51f: 6a                           ror     A
a520: 5d 0e c1     LA520           eor     $c10e,X
a523: 29 c0                        and     #$c0
a525: 5d 0e c1     LA525           eor     $c10e,X
a528: 9d 0e c1                     sta     $c10e,X
a52b: b8                           clv
a52c: 60                           rts

a52d: 20 eb 83     LA52D           jsr     savita
a530: a0 0e                        ldy     #$0e
a532: b1 b0                        lda     ($b0),Y
a534: 29 0a                        and     #$0a
a536: f0 02                        beq     LA53A
a538: a9 80                        lda     #$80
a53a: 5d 0f c0     LA53A           eor     $c00f,X
a53d: 29 80                        and     #$80
a53f: 5d 0f c0                     eor     $c00f,X
a542: 9d 0f c0                     sta     $c00f,X
a545: 60                           rts

a546: 20 73 a5     LA546           jsr     LA573
a549: 90 23                        bcc     LA56E
a54b: b9 0f c0     LA54B           lda     $c00f,Y
a54e: 10 22                        bpl     LA572
a550: 20 38 80     LA550           jsr     estrng
a553: c3                           .dd1    $c3
a554: 4c 6f 63 6b+                 .str    “Locked”
a55a: 00                           .dd1    $00

a55b: 20 4b a5     LA55B           jsr     LA54B
a55e: 20 eb 83     LA55E           jsr     savita
a561: 20 64 97                     jsr     L9764
a564: 90 21                        bcc     LA587
a566: 4c c8 96                     jmp     L96C8

a569: 20 73 a5     LA569           jsr     LA573
a56c: b0 19                        bcs     LA587
a56e: 68           LA56E           pla
a56f: 68                           pla
a570: a9 00                        lda     #$00
a572: 60           LA572           rts

a573: 20 f3 80     LA573           jsr     L80F3
a576: 20 8e 82                     jsr     lookup
a579: 90 0c                        bcc     LA587
a57b: 98                           tya
a57c: aa                           tax
a57d: ad db c2     LA57D           lda     $c2db
a580: 85 b0                        sta     $b0
a582: ad dc c2                     lda     $c2dc
a585: 85 b1                        sta     $b1
a587: 60           LA587           rts

a588: a9 83        LA588           lda     #$83
a58a: 20 f4 ff                     jsr     $fff4
a58d: 8c cf c2                     sty     $c2cf
a590: a9 84                        lda     #$84
a592: 20 f4 ff                     jsr     $fff4
a595: 98                           tya
a596: 38                           sec
a597: ed cf c2                     sbc     $c2cf
a59a: 8d d0 c2                     sta     $c2d0
a59d: 60                           rts

a59e: 20 ae a5     LA59E           jsr     LA5AE
a5a1: a0 d3                        ldy     #$d3
a5a3: a9 ff                        lda     #$ff
a5a5: 91 b0                        sta     ($b0),Y
a5a7: 8d d3 c2                     sta     $c2d3
a5aa: c8                           iny
a5ab: 91 b0                        sta     ($b0),Y
a5ad: 60                           rts

a5ae: 48           LA5AE           pha
a5af: a9 00                        lda     #$00
a5b1: 85 b0                        sta     $b0
a5b3: a6 f4                        ldx     $f4
a5b5: bd f0 0d                     lda     swrom_wksp_tab,X
a5b8: 85 b1                        sta     $b1
a5ba: 68                           pla
a5bb: 60                           rts

a5bc: 20 eb 83     LA5BC           jsr     savita
a5bf: a9 0f                        lda     #$0f
a5c1: a2 01                        ldx     #$01
a5c3: a0 00                        ldy     #$00
a5c5: f0 16                        beq     LA5DD

a5c7: aa           LA5C7           tax
a5c8: a9 03        LA5C8           lda     #$03
a5ca: d0 11                        bne     LA5DD

a5cc: 20 eb 83     LA5CC           jsr     savita
a5cf: a9 7e                        lda     #$7e
a5d1: d0 0a                        bne     LA5DD

a5d3: a9 8f        LA5D3           lda     #$8f
a5d5: d0 06                        bne     LA5DD

a5d7: a9                           .dd1    $a9
a5d8: ff                           .dd1    $ff

a5d9: a2 00        LA5D9           ldx     #$00
a5db: a0 ff                        ldy     #$ff
a5dd: 4c f4 ff     LA5DD           jmp     $fff4

a5e0: 1b ff        vtabb           .dd2    $ff1b
a5e2: 1e ff                        .dd2    $ff1e
a5e4: 21 ff                        .dd2    $ff21
a5e6: 24 ff                        .dd2    $ff24
a5e8: 27 ff                        .dd2    $ff27
a5ea: 2a ff                        .dd2    $ff2a
a5ec: 2d ff                        .dd2    $ff2d
a5ee: d5 a2        vtabf           .dd2    myFILEV
a5f0: 00                           .dd1    $00
a5f1: e1 97                        .dd2    my_ARGSV
a5f3: 00                           .dd1    $00
a5f4: 46 99                        .dd2    my_BGETV
a5f6: 00                           .dd1    $00
a5f7: 1a 9a                        .dd2    my_BPUTV
a5f9: 00                           .dd1    $00
a5fa: 19 a3                        .dd2    my_GBPBV
a5fc: 00                           .dd1    $00
a5fd: 52 96                        .dd2    my_FINDV
a5ff: 00                           .dd1    $00
a600: 06 a3                        .dd2    my_FSCV
a602: 00                           .dd1    $00
a603: 08           LA603           .dd1    $08
a604: 0f                           .dd1    $0f
a605: 28                           .dd1    $28
a606: b4                           .dd1    $b4
a607: 28                           .dd1    $28
a608: 82                           .dd1    $82
a609: 91                           .dd1    $91
a60a: 8c                           .dd1    $8c
a60b: 95                           .dd1    $95
a60c: 36                           .dd1    $36
a60d: 55                           .dd1    $55
a60e: 35                           .dd1    $35
a60f: 8a           LA60F           .dd1    $8a
a610: 99                           .dd1    $99
a611: 88                           .dd1    $88
a612: 86                           .dd1    $86
a613: 88                           .dd1    $88
a614: 84                           .dd1    $84
a615: 95                           .dd1    $95
a616: 95                           .dd1    $95
a617: a4                           .dd1    $a4
a618: 82                           .dd1    $82
a619: 82                           .dd1    $82
a61a: 88                           .dd1    $88
a61b: d1           LA61B           .dd1    $d1
a61c: 0f                           .dd1    $0f
a61d: c3 d6 ce de+                 .str    ↑“CVN^/8”
a623: 4d                           .dd1    $4d
a624: 87           LA624           .dd1    $87
a625: 88                           .dd1    $88
a626: a4 a4 a4 a4+                 .str    ↑“$$$$$$”,$8a
a62d: 1b           gbpbv_table1    .dd1    <ServNul
a62e: f9                           .dd1    <gbpb_putbytes
a62f: f9                           .dd1    <gbpb_putbytes
a630: a6                           .dd1    <gbpb_getbyteSAVEBYTE
a631: a6                           .dd1    <gbpb_getbyteSAVEBYTE
a632: e1                           .dd1    <gbpb_getmediatitle
a633: 10                           .dd1    <gbpb_rdcurdirdevice
a634: 23                           .dd1    <gbpb_rdcurlibdevice
a635: 95                           .dd1    <gbpb_rdfiles_curdir
a636: 86           gbpbv_table2    .dd1    >ServNul
a637: 99                           .dd1    >gbpb_putbytes
a638: 99                           .dd1    >gbpb_putbytes
a639: 9e                           .dd1    >gbpb_getbyteSAVEBYTE
a63a: 9e                           .dd1    >gbpb_getbyteSAVEBYTE
a63b: a3                           .dd1    >gbpb_getmediatitle
a63c: a4                           .dd1    >gbpb_rdcurdirdevice
a63d: a4                           .dd1    >gbpb_rdcurlibdevice
a63e: a3                           .dd1    >gbpb_rdfiles_curdir
                   ; following table:
                   ; bit     descr
                   ; 3       "flags"
                   ; 2       Tube operation
                   ; 1       read/write seq ptr
                   ; 0       write new seq ptr after
a63f: 04           gbpbv_table3    .dd1    $04
a640: 02                           .dd1    $02
a641: 03                           .dd1    $03
a642: 06                           .dd1    $06
a643: 07                           .dd1    $07
a644: 04                           .dd1    $04
a645: 04                           .dd1    $04
a646: 04                           .dd1    $04
a647: 04                           .dd1    $04

a648: 20 5d 8b     cmd_compact     jsr     L8B5D
a64b: 20 7f 80                     jsr     vstrng
a64e: 43 6f 6d 70+                 .str    “Compacting :”

a65a: 8d d1 c2                     sta     $c2d1
a65d: 8d d2 c2                     sta     $c2d2
a660: 20 c3 80                     jsr     L80C3
a663: 20 dd a7                     jsr     LA7DD
a666: a0 00        LA666           ldy     #$00
a668: 20 bf 95                     jsr     L95BF
a66b: 20 88 a5                     jsr     LA588
a66e: 20 88 83                     jsr     L8388
a671: ac 05 c1                     ldy     $c105
a674: 84 ca                        sty     $ca
a676: a9 02                        lda     #$02
a678: 85 c8                        sta     $c8
a67a: a9 00                        lda     #$00
a67c: 85 c9                        sta     $c9
a67e: a4 ca        LA67E           ldy     $ca
a680: 20 ba 82                     jsr     L82BA
a683: c0 f8                        cpy     #$f8
a685: d0 28                        bne     LA6AF
a687: ad 07 c1                     lda     $c107
a68a: 38                           sec
a68b: e5 c8                        sbc     $c8
a68d: 48                           pha
a68e: ad 06 c1                     lda     $c106
a691: 29 03                        and     #$03
a693: e5 c9                        sbc     $c9
a695: 20 c3 80                     jsr     L80C3
a698: 68                           pla
a699: 20 bb 80                     jsr     L80BB
a69c: 20 7f 80                     jsr     vstrng
a69f: 20 66 72                     jsr     $7266
a6a2: 65 65                        adc     $65
a6a4: 20 73 65                     jsr     $6573
a6a7: 63 74 6f 72+                 .str    “ctors”,$0d
a6ad: ea                           .dd1    $ea
a6ae: 60                           .dd1    $60

a6af: 84 ca        LA6AF           sty     $ca
a6b1: 20 3d 83                     jsr     L833D
a6b4: a4 ca                        ldy     $ca
a6b6: b9 0c c1                     lda     $c10c,Y
a6b9: c9 01                        cmp     #$01
a6bb: a9 00                        lda     #$00
a6bd: 85 bc                        sta     $bc
a6bf: 85 c0                        sta     $c0
a6c1: 79 0d c1                     adc     $c10d,Y
a6c4: 85 c4                        sta     $c4
a6c6: b9 0e c1                     lda     $c10e,Y
a6c9: 08                           php
a6ca: 20 b0 81                     jsr     L81B0
a6cd: 28                           plp
a6ce: 69 00                        adc     #$00
a6d0: 85 c5                        sta     $c5
a6d2: b9 0f c1                     lda     $c10f,Y
a6d5: 85 c6                        sta     $c6
a6d7: b9 0e c1                     lda     $c10e,Y
a6da: 29 03                        and     #$03
a6dc: 85 c7                        sta     $c7
a6de: c5 c9                        cmp     $c9
a6e0: d0 14                        bne     LA6F6
a6e2: a5 c6                        lda     $c6
a6e4: c5 c8                        cmp     $c8
a6e6: d0 0e                        bne     LA6F6
a6e8: 18                           clc
a6e9: 65 c4                        adc     $c4
a6eb: 85 c8                        sta     $c8
a6ed: a5 c9                        lda     $c9
a6ef: 65 c5                        adc     $c5
a6f1: 85 c9                        sta     $c9
a6f3: 4c 11 a7                     jmp     LA711

a6f6: a5 c8        LA6F6           lda     $c8
a6f8: 99 0f c1                     sta     $c10f,Y
a6fb: b9 0e c1                     lda     $c10e,Y
a6fe: 29 fc                        and     #$fc
a700: 05 c9                        ora     $c9
a702: 99 0e c1                     sta     $c10e,Y
a705: a9 00                        lda     #$00
a707: 85 a8                        sta     $a8
a709: 85 a9                        sta     $a9
a70b: 20 31 a9                     jsr     LA931
a70e: 20 2b 94                     jsr     L942B
a711: a4 ca        LA711           ldy     $ca
a713: 20 42 83                     jsr     L8342
a716: 4c 7e a6                     jmp     LA67E

a719: 2c c7 c2     LA719           bit     $c2c7
a71c: 10 5b                        bpl     LA779
a71e: 20 ed a7                     jsr     LA7ED
a721: f0 02                        beq     LA725
a723: 68                           pla
a724: 68                           pla
a725: 4c dd a7     LA725           jmp     LA7DD

a728: 20 15 9f     LA728           jsr     L9F15
a72b: 20 62 8b                     jsr     L8B62
a72e: 8d d1 c2                     sta     $c2d1
a731: 20 15 9f                     jsr     L9F15
a734: 20 62 8b                     jsr     L8B62
a737: 8d d2 c2                     sta     $c2d2
a73a: 5a                           phy
a73b: 64 a9                        stz     $a9
a73d: ad d2 c2                     lda     $c2d2
a740: cd d1 c2                     cmp     $c2d1
a743: d0 06                        bne     LA74B
a745: a9 ff                        lda     #$ff
a747: 85 a9                        sta     $a9
a749: 85 aa                        sta     $aa
a74b: 20 88 a5     LA74B           jsr     LA588
a74e: 20 7f 80                     jsr     vstrng
a751: 43 6f 70 79+                 .str    “Copying from :”
a75f: ad                           .dd1    $ad
a760: d1                           .dd1    $d1
a761: c2                           .dd1    $c2
a762: 20                           .dd1    $20
a763: c3                           .dd1    $c3
a764: 80                           .dd1    $80
a765: 20                           .dd1    $20
a766: 7f                           .dd1    $7f
a767: 80                           .dd1    $80
a768: 20 74 6f 20+                 .str    “ to :”
a76d: ad                           .dd1    $ad
a76e: d2                           .dd1    $d2
a76f: c2                           .dd1    $c2
a770: 20                           .dd1    $20
a771: c3                           .dd1    $c3
a772: 80                           .dd1    $80
a773: 20                           .dd1    $20
a774: dd                           .dd1    $dd
a775: a7                           .dd1    $a7
a776: 68                           .dd1    $68
a777: a8                           .dd1    $a8
a778: 18                           .dd1    $18

a779: 60           LA779           rts

a77a: 20 eb 83     LA77A           jsr     savita
a77d: 24 a9                        bit     $a9
a77f: 10 0b                        bpl     LA78C
a781: a9 00                        lda     #$00
a783: 80 0a                        bra     LA78F

a785: 20 eb 83     LA785           jsr     savita
a788: 24 a9                        bit     $a9
a78a: 30 01                        bmi     LA78D
a78c: 60           LA78C           rts

a78d: a9 80        LA78D           lda     #$80
a78f: c5 aa        LA78F           cmp     $aa
a791: f0 f9                        beq     LA78C
a793: 85 aa                        sta     $aa
a795: 20 7f 80                     jsr     vstrng
a798: 49 6e                        eor     #$6e
a79a: 73 65 72 74+                 .str    “sert ”
a79f: ea                           .dd1    $ea
a7a0: 24                           .dd1    $24
a7a1: aa                           .dd1    $aa
a7a2: 30                           .dd1    $30
a7a3: 0b                           .dd1    $0b
a7a4: 20                           .dd1    $20
a7a5: 7f                           .dd1    $7f
a7a6: 80                           .dd1    $80
a7a7: 73 6f 75 72+                 .str    “source”
a7ad: 90                           .dd1    $90
a7ae: 0f                           .dd1    $0f
a7af: 20                           .dd1    $20
a7b0: 7f                           .dd1    $7f
a7b1: 80                           .dd1    $80
a7b2: 64 65 73 74+                 .str    “destination”
a7bd: ea                           .dd1    $ea
a7be: 20                           .dd1    $20
a7bf: 7f                           .dd1    $7f
a7c0: 80                           .dd1    $80
a7c1: 20 64 69 73+                 .str    “ disc and hit a key”
a7d4: ea                           .dd1    $ea
a7d5: 20                           .dd1    $20
a7d6: bc                           .dd1    $bc
a7d7: a5                           .dd1    $a5
a7d8: 20                           .dd1    $20
a7d9: e0                           .dd1    $e0
a7da: ff                           .dd1    $ff
a7db: b0                           .dd1    $b0
a7dc: 35                           .dd1    $35

a7dd: 48           LA7DD           pha
a7de: a9 0d                        lda     #$0d
a7e0: 20 a0 80                     jsr     pchr
a7e3: 68                           pla
a7e4: 60                           rts

a7e5: 20 7f 80     LA7E5           jsr     vstrng
a7e8: 20 3a 20                     jsr     $203a
a7eb: 90 0f                        bcc     LA7FC
a7ed: 20 7f 80     LA7ED           jsr     vstrng
a7f0: 47 6f 20 28+                 .str    “Go (Y/N) ? ”
a7fb: ea                           .dd1    $ea

a7fc: 20 bc a5     LA7FC           jsr     LA5BC
a7ff: 20 e0 ff                     jsr     $ffe0
a802: b0 0e                        bcs     LA812
a804: 29 5f                        and     #$5f
a806: c9 59                        cmp     #$59
a808: 08                           php
a809: f0 02                        beq     LA80D
a80b: a9 4e                        lda     #$4e
a80d: 20 a0 80     LA80D           jsr     pchr
a810: 28                           plp
a811: 60                           rts

a812: 4c 7b 94     LA812           jmp     L947B

a815: 4c 45        LA815           jmp ▼   L8A45

a817: 8a           TA817           txa
a818: 20 28 a7     cmd_backup      jsr     LA728
a81b: 20 19 a7                     jsr     LA719
a81e: a9 00                        lda     #$00
a820: 85 c7                        sta     $c7
a822: 85 c9                        sta     $c9
a824: 85 c8                        sta     $c8
a826: 85 c6                        sta     $c6
a828: 85 a8                        sta     $a8
a82a: 20 7a a7                     jsr     LA77A
a82d: ad d1 c2                     lda     $c2d1
a830: 85 cd                        sta     $cd
a832: 20 51 94                     jsr     L9451
a835: ad 07 c1                     lda     $c107
a838: 85 c4                        sta     $c4
a83a: ad 06 c1                     lda     $c106
a83d: 29 03                        and     #$03
a83f: 85 c5                        sta     $c5
a841: 20 85 a7                     jsr     LA785
a844: ad d2 c2                     lda     $c2d2
a847: 85 cd                        sta     $cd
a849: 20 51 94                     jsr     L9451
a84c: ad 06 c1                     lda     $c106
a84f: 29 03                        and     #$03
a851: c5 c5                        cmp     $c5
a853: 90 c0                        bcc     LA815
a855: d0 07                        bne     LA85E
a857: ad 07 c1                     lda     $c107
a85a: c5 c4                        cmp     $c4
a85c: 90 b7                        bcc     LA815
a85e: 20 31 a9     LA85E           jsr     LA931
a861: 4c 51 94                     jmp     L9451

a864: 20 a7 a4     cmd_copy        jsr     LA4A7
a867: 20 28 a7                     jsr     LA728
a86a: 20 15 9f                     jsr     L9F15
a86d: 20 ed 80                     jsr     L80ED
a870: 20 7a a7                     jsr     LA77A
a873: ad d1 c2                     lda     $c2d1
a876: 20 cd 87                     jsr     L87CD
a879: 20 24 82                     jsr     L8224
a87c: a5 cc        LA87C           lda     $cc
a87e: 48                           pha
a87f: a5 b6                        lda     $b6
a881: 85 ab                        sta     $ab
a883: 20 42 83                     jsr     L8342
a886: a2 00                        ldx     #$00
a888: b9 08 c0     LA888           lda     $c008,Y
a88b: 95 c5                        sta     $c5,X
a88d: 9d 50 c2                     sta     $c250,X
a890: b9 08 c1                     lda     $c108,Y
a893: 95 bb                        sta     $bb,X
a895: 9d 47 c2                     sta     $c247,X
a898: e8                           inx
a899: c8                           iny
a89a: e0 08                        cpx     #$08
a89c: d0 ea                        bne     LA888
a89e: a5 c1                        lda     $c1
a8a0: 20 b0 81                     jsr     L81B0
a8a3: 85 c3                        sta     $c3
a8a5: a5 bf                        lda     $bf
a8a7: 18                           clc
a8a8: 69 ff                        adc     #$ff
a8aa: a5 c0                        lda     $c0
a8ac: 69 00                        adc     #$00
a8ae: 85 c4                        sta     $c4
a8b0: a5 c3                        lda     $c3
a8b2: 69 00                        adc     #$00
a8b4: 85 c5                        sta     $c5
a8b6: ad 4e c2                     lda     $c24e
a8b9: 85 c6                        sta     $c6
a8bb: ad 4d c2                     lda     $c24d
a8be: 29 03                        and     #$03
a8c0: 85 c7                        sta     $c7
a8c2: a9 ff                        lda     #$ff
a8c4: 85 a8                        sta     $a8
a8c6: 20 31 a9                     jsr     LA931
a8c9: 20 7a a7                     jsr     LA77A
a8cc: ad d1 c2                     lda     $c2d1
a8cf: 20 cd 87                     jsr     L87CD
a8d2: 20 88 83                     jsr     L8388
a8d5: a5 ab                        lda     $ab
a8d7: 85 b6                        sta     $b6
a8d9: 68                           pla
a8da: 85 cc                        sta     $cc
a8dc: 20 8a 82                     jsr     L828A
a8df: b0 9b                        bcs     LA87C
a8e1: 60                           rts

a8e2: 20 20 a9     LA8E2           jsr     LA920
a8e5: 20 85 a7                     jsr     LA785
a8e8: ad d2 c2                     lda     $c2d2
a8eb: 85 cd                        sta     $cd
a8ed: a5 cc                        lda     $cc
a8ef: 48                           pha
a8f0: 20 88 83                     jsr     L8388
a8f3: 20 77 82                     jsr     L8277
a8f6: 90 03                        bcc     LA8FB
a8f8: 20 12 83                     jsr     L8312
a8fb: 68           LA8FB           pla
a8fc: 85 cc                        sta     $cc
a8fe: 20 24 8b                     jsr     L8B24
a901: 20 3b 8b                     jsr     L8B3B
a904: a5 c2                        lda     $c2
a906: 20 b0 81                     jsr     L81B0
a909: 85 c4                        sta     $c4
a90b: 20 8a 8a                     jsr     L8A8A
a90e: a5 c2                        lda     $c2
a910: 29 03                        and     #$03
a912: 48                           pha
a913: a5 c3                        lda     $c3
a915: 48                           pha
a916: 20 20 a9                     jsr     LA920
a919: 68                           pla
a91a: 85 c8                        sta     $c8
a91c: 68                           pla
a91d: 85 c9                        sta     $c9
a91f: 60                           rts

a920: a2 11        LA920           ldx     #$11
a922: bd 45 c2     LA922           lda     $c245,X
a925: b4 ba                        ldy     $ba,X
a927: 95 ba                        sta     $ba,X
a929: 98                           tya
a92a: 9d 45 c2                     sta     $c245,X
a92d: ca                           dex
a92e: 10 f2                        bpl     LA922
a930: 60                           rts

a931: 64 bc        LA931           stz     $bc
a933: 64 c0                        stz     $c0
a935: 80 73                        bra     LA9AA

a937: a5 c4        LA937           lda     $c4
a939: a8                           tay
a93a: cd d0 c2                     cmp     $c2d0
a93d: a5 c5                        lda     $c5
a93f: e9 00                        sbc     #$00
a941: 90 03                        bcc     LA946
a943: ac d0 c2                     ldy     $c2d0
a946: 84 c1        LA946           sty     $c1
a948: a5 c6                        lda     $c6
a94a: 85 c3                        sta     $c3
a94c: a5 c7                        lda     $c7
a94e: 85 c2                        sta     $c2
a950: ad cf c2                     lda     $c2cf
a953: 85 bd                        sta     $bd
a955: ad d1 c2                     lda     $c2d1
a958: 85 cd                        sta     $cd
a95a: 20 7a a7                     jsr     LA77A
a95d: 20 b1 a9                     jsr     LA9B1
a960: 20 0c 88                     jsr     L880C
a963: ad d2 c2                     lda     $c2d2
a966: 85 cd                        sta     $cd
a968: 24 a8                        bit     $a8
a96a: 10 07                        bpl     LA973
a96c: 20 e2 a8                     jsr     LA8E2
a96f: a9 00                        lda     #$00
a971: 85 a8                        sta     $a8
a973: a5 c8        LA973           lda     $c8
a975: 85 c3                        sta     $c3
a977: a5 c9                        lda     $c9
a979: 85 c2                        sta     $c2
a97b: ad cf c2                     lda     $c2cf
a97e: 85 bd                        sta     $bd
a980: 20 85 a7                     jsr     LA785
a983: 20 b1 a9                     jsr     LA9B1
a986: 20 19 88                     jsr     L8819
a989: a5 c1                        lda     $c1
a98b: 18                           clc
a98c: 65 c8                        adc     $c8
a98e: 85 c8                        sta     $c8
a990: 90 02                        bcc     LA994
a992: e6 c9                        inc     $c9
a994: a5 c1        LA994           lda     $c1
a996: 18                           clc
a997: 65 c6                        adc     $c6
a999: 85 c6                        sta     $c6
a99b: 90 02                        bcc     LA99F
a99d: e6 c7                        inc     $c7
a99f: 38           LA99F           sec
a9a0: a5 c4                        lda     $c4
a9a2: e5 c1                        sbc     $c1
a9a4: 85 c4                        sta     $c4
a9a6: b0 02                        bcs     LA9AA
a9a8: c6 c5                        dec     $c5
a9aa: a5 c4        LA9AA           lda     $c4
a9ac: 05 c5                        ora     $c5
a9ae: d0 87                        bne     LA937
a9b0: 60                           rts

a9b1: a9 ff        LA9B1           lda     #$ff
a9b3: 8d 74 c2                     sta     $c274
a9b6: 8d 75 c2                     sta     $c275
a9b9: 60                           rts

a9ba: a9 00        cmd_verify      lda     #$00
a9bc: f0 05                        beq     LA9C3

a9be: a9 ff        cmd_form        lda     #$ff
a9c0: 8d 82 c2                     sta     $c282
a9c3: 85 c9        LA9C3           sta     $c9
a9c5: 8d 90 c2                     sta     $c290
a9c8: 10 1a                        bpl     LA9E4
a9ca: 20 15 9f                     jsr     L9F15
a9cd: 20 58 84                     jsr     L8458
a9d0: 8d 9f c2                     sta     $c29f
a9d3: b0 0c                        bcs     LA9E1
a9d5: c9 23                        cmp     #$23
a9d7: f0 0b                        beq     LA9E4
a9d9: c9 28                        cmp     #$28
a9db: f0 07                        beq     LA9E4
a9dd: c9 50                        cmp     #$50
a9df: f0 03                        beq     LA9E4
a9e1: 4c 1a 9f     LA9E1           jmp     L9F1A

a9e4: 20 03 87     LA9E4           jsr     L8703
a9e7: 84 ca                        sty     $ca
a9e9: d0 4b                        bne     LAA36
a9eb: 24 c9                        bit     $c9
a9ed: 30 0b                        bmi     LA9FA
a9ef: 20 7f 80                     jsr     vstrng
a9f2: 56 65                        lsr     $65,X
a9f4: 72 69                        adc     ($69)
a9f6: 66 79                        ror     $79
a9f8: 90 0a                        bcc     LAA04
a9fa: 20 7f 80     LA9FA           jsr     vstrng
a9fd: 46 6f                        lsr     $6f
a9ff: 72 6d                        adc     ($6d)
aa01: 61 74                        adc     ($74,X)
aa03: ea                           nop
aa04: 20 7f 80     LAA04           jsr     vstrng
aa07: 20 77 68                     jsr     $6877
aa0a: 69 63                        adc     #$63
aa0c: 68                           pla
aa0d: 20 64 72                     jsr     $7264
aa10: 69 76                        adc     #$76
aa12: 65 20                        adc     $20
aa14: 3f                           .dd1    $3f
aa15: 20                           .dd1    $20
aa16: ea                           .dd1    $ea
aa17: 20                           .dd1    $20
aa18: e0                           .dd1    $e0
aa19: ff                           .dd1    $ff
aa1a: b0                           .dd1    $b0
aa1b: 40                           .dd1    $40
aa1c: c9                           .dd1    $c9
aa1d: 20                           .dd1    $20
aa1e: 90                           .dd1    $90
aa1f: 3f                           .dd1    $3f
aa20: 20                           .dd1    $20
aa21: a0                           .dd1    $a0
aa22: 80                           .dd1    $80
aa23: 38                           .dd1    $38
aa24: e9                           .dd1    $e9
aa25: 30                           .dd1    $30
aa26: 90                           .dd1    $90
aa27: 37                           .dd1    $37
aa28: c9                           .dd1    $c9
aa29: 04                           .dd1    $04
aa2a: b0                           .dd1    $b0
aa2b: 33                           .dd1    $33
aa2c: 85                           .dd1    $85
aa2d: cd                           .dd1    $cd
aa2e: 20                           .dd1    $20
aa2f: dd a7 a4 ca                  .str    ↑“]'$J”
aa33: 4c                           .dd1    $4c
aa34: 39                           .dd1    $39
aa35: aa                           .dd1    $aa

aa36: 20 62 8b     LAA36           jsr     L8B62
aa39: 84 ca                        sty     $ca
aa3b: 24 c9                        bit     $c9
aa3d: 10 07                        bpl     LAA46
aa3f: a6 cd                        ldx     $cd
aa41: a9 00                        lda     #$00
aa43: 9d de c2                     sta     $c2de,X
aa46: 2c 90 c2     LAA46           bit     $c290
aa49: 10 06                        bpl     LAA51
aa4b: 20 19 a7                     jsr     LA719
aa4e: 20 88 a5                     jsr     LA588
aa51: 20 62 aa     LAA51           jsr     LAA62
aa54: a4 ca                        ldy     $ca
aa56: 20 03 87                     jsr     L8703
aa59: d0 db                        bne     LAA36
aa5b: 60                           rts

aa5c: 4c                           .dd1    $4c
aa5d: 7b                           .dd1    $7b
aa5e: 94                           .dd1    $94
aa5f: 4c                           .dd1    $4c
aa60: 79                           .dd1    $79
aa61: 8b                           .dd1    $8b

aa62: 24 c9        LAA62           bit     $c9
aa64: 30 0e                        bmi     LAA74
aa66: 20 7f 80                     jsr     vstrng
aa69: 56 65                        lsr     $65,X
aa6b: 72 69                        adc     ($69)
aa6d: 66 79                        ror     $79
aa6f: 69 6e                        adc     #$6e
aa71: 67                           .dd1    $67
aa72: 90                           .dd1    $90
aa73: 15                           .dd1    $15

aa74: 20 6b ab     LAA74           jsr     LAB6B
aa77: 20 7f 80                     jsr     vstrng
aa7a: 46 6f                        lsr     $6f
aa7c: 72 6d                        adc     ($6d)
aa7e: 61 74                        adc     ($74,X)
aa80: 74 69                        stz     $69,X
aa82: 6e 67 a6                     ror     LA666+1
aa85: cd 8e 90                     cmp     L908D+1
aa88: c2                           .dd1    $c2
aa89: 20                           .dd1    $20
aa8a: 7f                           .dd1    $7f
aa8b: 80                           .dd1    $80
aa8c: 20 64 72 69+                 .str    “ drive ”
aa93: a5                           .dd1    $a5
aa94: cd                           .dd1    $cd
aa95: 20                           .dd1    $20
aa96: c3                           .dd1    $c3
aa97: 80                           .dd1    $80
aa98: 20                           .dd1    $20
aa99: 7f                           .dd1    $7f
aa9a: 80                           .dd1    $80
aa9b: 20 74 72 61+                 .str    “ track   ”
aaa4: ea                           .dd1    $ea
aaa5: 24                           .dd1    $24
aaa6: c9                           .dd1    $c9
aaa7: 30                           .dd1    $30
aaa8: 0c                           .dd1    $0c
aaa9: 20                           .dd1    $20
aaaa: cd ab 8a d0                  .str    ↑“M+”,$8a,“P”
aaae: 03                           .dd1    $03
aaaf: 4c                           .dd1    $4c
aab0: dd                           .dd1    $dd
aab1: a7                           .dd1    $a7
aab2: 8d                           .dd1    $8d
aab3: 9f                           .dd1    $9f
aab4: c2                           .dd1    $c2
aab5: a9                           .dd1    $a9
aab6: 00                           .dd1    $00
aab7: 8d                           .dd1    $8d
aab8: 97                           .dd1    $97
aab9: c2                           .dd1    $c2
aaba: a9                           .dd1    $a9
aabb: 08                           .dd1    $08
aabc: 20                           .dd1    $20
aabd: a0                           .dd1    $a0
aabe: 80                           .dd1    $80
aabf: 20                           .dd1    $20
aac0: a0                           .dd1    $a0
aac1: 80                           .dd1    $80
aac2: ad                           .dd1    $ad
aac3: 97                           .dd1    $97
aac4: c2                           .dd1    $c2
aac5: 20                           .dd1    $20
aac6: bb                           .dd1    $bb
aac7: 80                           .dd1    $80
aac8: a9                           .dd1    $a9
aac9: 06                           .dd1    $06
aaca: 8d                           .dd1    $8d
aacb: 9d                           .dd1    $9d
aacc: c2                           .dd1    $c2
aacd: 20                           .dd1    $20
aace: 3c                           .dd1    $3c
aacf: ab                           .dd1    $ab
aad0: 24                           .dd1    $24
aad1: c9                           .dd1    $c9
aad2: 10                           .dd1    $10
aad3: 0d                           .dd1    $0d
aad4: 20                           .dd1    $20
aad5: 87                           .dd1    $87
aad6: ab                           .dd1    $ab
aad7: a2                           .dd1    $a2
aad8: 90                           .dd1    $90
aad9: a0                           .dd1    $a0
aada: c2                           .dd1    $c2
aadb: 20                           .dd1    $20
aadc: f4                           .dd1    $f4
aadd: 91                           .dd1    $91
aade: aa                           .dd1    $aa
aadf: d0                           .dd1    $d0
aae0: 28                           .dd1    $28
aae1: a9                           .dd1    $a9
aae2: 00                           .dd1    $00
aae3: 8d                           .dd1    $8d
aae4: 98                           .dd1    $98
aae5: c2                           .dd1    $c2
aae6: ad                           .dd1    $ad
aae7: 99                           .dd1    $99
aae8: c2                           .dd1    $c2
aae9: 29                           .dd1    $29
aaea: 1f                           .dd1    $1f
aaeb: 8d                           .dd1    $8d
aaec: 99                           .dd1    $99
aaed: c2                           .dd1    $c2
aaee: a9                           .dd1    $a9
aaef: 03                           .dd1    $03
aaf0: 8d                           .dd1    $8d
aaf1: 95                           .dd1    $95
aaf2: c2                           .dd1    $c2
aaf3: a9                           .dd1    $a9
aaf4: 5f                           .dd1    $5f
aaf5: 8d                           .dd1    $8d
aaf6: 96                           .dd1    $96
aaf7: c2                           .dd1    $c2
aaf8: 20                           .dd1    $20
aaf9: 77                           .dd1    $77
aafa: 94                           .dd1    $94
aafb: a2                           .dd1    $a2
aafc: 90                           .dd1    $90
aafd: a0                           .dd1    $a0
aafe: c2                           .dd1    $c2
aaff: 20                           .dd1    $20
ab00: f4                           .dd1    $f4
ab01: 91                           .dd1    $91
ab02: f0                           .dd1    $f0
ab03: 0d                           .dd1    $0d
ab04: ce                           .dd1    $ce
ab05: 9d                           .dd1    $9d
ab06: c2                           .dd1    $c2
ab07: d0                           .dd1    $d0
ab08: c4                           .dd1    $c4
ab09: 20                           .dd1    $20
ab0a: 7f                           .dd1    $7f
ab0b: 80                           .dd1    $80
ab0c: 3f                           .dd1    $3f
ab0d: ea                           .dd1    $ea
ab0e: 4c                           .dd1    $4c
ab0f: 09                           .dd1    $09
ab10: 95                           .dd1    $95
ab11: ad                           .dd1    $ad
ab12: 9d                           .dd1    $9d
ab13: c2                           .dd1    $c2
ab14: c9                           .dd1    $c9
ab15: 06                           .dd1    $06
ab16: f0                           .dd1    $f0
ab17: 08                           .dd1    $08
ab18: 20                           .dd1    $20
ab19: 7f                           .dd1    $7f
ab1a: 80                           .dd1    $80
ab1b: 3f 20 20 20                  .str    “?   ”
ab1f: ea                           .dd1    $ea
ab20: 24                           .dd1    $24
ab21: c9                           .dd1    $c9
ab22: 10                           .dd1    $10
ab23: 03                           .dd1    $03
ab24: 20                           .dd1    $20
ab25: 78                           .dd1    $78
ab26: ab                           .dd1    $ab
ab27: ee                           .dd1    $ee
ab28: 97                           .dd1    $97
ab29: c2                           .dd1    $c2
ab2a: ad                           .dd1    $ad
ab2b: 97                           .dd1    $97
ab2c: c2                           .dd1    $c2
ab2d: cd                           .dd1    $cd
ab2e: 9f                           .dd1    $9f
ab2f: c2                           .dd1    $c2
ab30: d0                           .dd1    $d0
ab31: 88                           .dd1    $88
ab32: 24                           .dd1    $24
ab33: c9                           .dd1    $c9
ab34: 10                           .dd1    $10
ab35: 03                           .dd1    $03
ab36: 20                           .dd1    $20
ab37: 36                           .dd1    $36
ab38: 94                           .dd1    $94
ab39: 4c                           .dd1    $4c
ab3a: dd                           .dd1    $dd
ab3b: a7                           .dd1    $a7
ab3c: a2                           .dd1    $a2
ab3d: 00                           .dd1    $00
ab3e: 8e                           .dd1    $8e
ab3f: 91                           .dd1    $91
ab40: c2                           .dd1    $c2
ab41: 8e                           .dd1    $8e
ab42: 9a                           .dd1    $9a
ab43: c2                           .dd1    $c2
ab44: ca                           .dd1    $ca
ab45: 8e                           .dd1    $8e
ab46: 93                           .dd1    $93
ab47: c2                           .dd1    $c2
ab48: 8e                           .dd1    $8e
ab49: 94                           .dd1    $94
ab4a: c2 ad cf c2+                 .str    ↑“B-OB”,$8d
ab4f: 92                           .dd1    $92
ab50: c2                           .dd1    $c2
ab51: a9                           .dd1    $a9
ab52: 05                           .dd1    $05
ab53: 8d                           .dd1    $8d
ab54: 95                           .dd1    $95
ab55: c2                           .dd1    $c2
ab56: a9                           .dd1    $a9
ab57: 63                           .dd1    $63
ab58: 8d                           .dd1    $8d
ab59: 96                           .dd1    $96
ab5a: c2                           .dd1    $c2
ab5b: a9                           .dd1    $a9
ab5c: 2a                           .dd1    $2a
ab5d: 8d                           .dd1    $8d
ab5e: 99                           .dd1    $99
ab5f: c2                           .dd1    $c2
ab60: a2                           .dd1    $a2
ab61: 10                           .dd1    $10
ab62: a0                           .dd1    $a0
ab63: 13                           .dd1    $13
ab64: 8e                           .dd1    $8e
ab65: 9b                           .dd1    $9b
ab66: c2                           .dd1    $c2
ab67: 8c                           .dd1    $8c
ab68: 98                           .dd1    $98
ab69: c2                           .dd1    $c2
ab6a: 60                           .dd1    $60

ab6b: a9 00        LAB6B           lda     #$00
ab6d: a8                           tay
ab6e: 99 00 c0     LAB6E           sta     $c000,Y
ab71: 99 00 c1                     sta     $c100,Y
ab74: c8                           iny
ab75: d0 f7                        bne     LAB6E
ab77: 60                           rts

ab78: a9                           .dd1    $a9
ab79: 0a                           .dd1    $0a
ab7a: 18                           .dd1    $18
ab7b: 6d                           .dd1    $6d
ab7c: 07                           .dd1    $07
ab7d: c1                           .dd1    $c1
ab7e: 8d                           .dd1    $8d
ab7f: 07                           .dd1    $07
ab80: c1                           .dd1    $c1
ab81: 90                           .dd1    $90
ab82: 03                           .dd1    $03
ab83: ee                           .dd1    $ee
ab84: 06                           .dd1    $06
ab85: c1                           .dd1    $c1
ab86: 60                           .dd1    $60
ab87: a9                           .dd1    $a9
ab88: 00                           .dd1    $00
ab89: 85                           .dd1    $85
ab8a: b0 ad cf c2                  .str    ↑“0-OB”
ab8e: 85                           .dd1    $85
ab8f: b1                           .dd1    $b1
ab90: a9                           .dd1    $a9
ab91: 0a                           .dd1    $0a
ab92: 85                           .dd1    $85
ab93: b2                           .dd1    $b2
ab94: ad                           .dd1    $ad
ab95: 97                           .dd1    $97
ab96: c2                           .dd1    $c2
ab97: f0                           .dd1    $f0
ab98: 0a                           .dd1    $0a
ab99: a0                           .dd1    $a0
ab9a: 02                           .dd1    $02
ab9b: b1                           .dd1    $b1
ab9c: b0                           .dd1    $b0
ab9d: 18                           .dd1    $18
ab9e: 69                           .dd1    $69
ab9f: 07                           .dd1    $07
aba0: 20                           .dd1    $20
aba1: c4 ab aa a0                  .str    ↑“D+* ”
aba5: 00                           .dd1    $00
aba6: ad                           .dd1    $ad
aba7: 97                           .dd1    $97
aba8: c2                           .dd1    $c2
aba9: 91                           .dd1    $91
abaa: b0                           .dd1    $b0
abab: c8                           .dd1    $c8
abac: a9                           .dd1    $a9
abad: 00                           .dd1    $00
abae: 91                           .dd1    $91
abaf: b0                           .dd1    $b0
abb0: c8                           .dd1    $c8
abb1: 8a                           .dd1    $8a
abb2: 91                           .dd1    $91
abb3: b0                           .dd1    $b0
abb4: c8                           .dd1    $c8
abb5: a9                           .dd1    $a9
abb6: 01                           .dd1    $01
abb7: 91                           .dd1    $91
abb8: b0                           .dd1    $b0
abb9: c8                           .dd1    $c8
abba: e8                           .dd1    $e8
abbb: 20                           .dd1    $20
abbc: c3 ab c6 b2+                 .str    ↑“C+F2Pd”
abc2: 60                           .dd1    $60
abc3: 8a                           .dd1    $8a
abc4: 38                           .dd1    $38
abc5: e9                           .dd1    $e9
abc6: 0a                           .dd1    $0a
abc7: b0                           .dd1    $b0
abc8: fc                           .dd1    $fc
abc9: 69                           .dd1    $69
abca: 0a                           .dd1    $0a
abcb: aa                           .dd1    $aa
abcc: 60                           .dd1    $60
abcd: 20                           .dd1    $20
abce: 3a                           .dd1    $3a
abcf: 94                           .dd1    $94
abd0: ad                           .dd1    $ad
abd1: 06                           .dd1    $06
abd2: c1                           .dd1    $c1
abd3: 29                           .dd1    $29
abd4: 03                           .dd1    $03
abd5: aa                           .dd1    $aa
abd6: ad                           .dd1    $ad
abd7: 07                           .dd1    $07
abd8: c1                           .dd1    $c1
abd9: a0                           .dd1    $a0
abda: 0a                           .dd1    $0a
abdb: 84                           .dd1    $84
abdc: b0                           .dd1    $b0
abdd: a0                           .dd1    $a0
abde: ff                           .dd1    $ff
abdf: 38                           .dd1    $38
abe0: c8 e5 b0 b0+                 .str    ↑“He00{J”
abe6: 10                           .dd1    $10
abe7: f7                           .dd1    $f7
abe8: 65                           .dd1    $65
abe9: b0                           .dd1    $b0
abea: 48                           .dd1    $48
abeb: 98                           .dd1    $98
abec: aa                           .dd1    $aa
abed: 68                           .dd1    $68
abee: f0                           .dd1    $f0
abef: 01                           .dd1    $01
abf0: e8                           .dd1    $e8
abf1: 60                           .dd1    $60

abf2: 38           cmd_free        sec
abf3: b0 01                        bcs     LABF6

abf5: 18           cmd_map         clc
abf6: 66 c6        LABF6           ror     $c6
abf8: 20 5d 8b                     jsr     L8B5D
abfb: 20 88 83                     jsr     L8388
abfe: 24 c6                        bit     $c6
ac00: 30 15                        bmi     LAC17
ac02: 20 9b ad                     jsr     LAD9B
ac05: 41 64                        eor     ($64,X)
ac07: 64 72                        stz     $72
ac09: 65 73                        adc     $73
ac0b: 73 20 3a 20+                 .str    “s :  Length”,$0d

ac17: ad 06 c1     LAC17           lda     $c106
ac1a: 29 03                        and     #$03
ac1c: 85 c5                        sta     $c5
ac1e: 85 c2                        sta     $c2
ac20: ad 07 c1                     lda     $c107
ac23: 85 c4                        sta     $c4
ac25: 38                           sec
ac26: e9 02                        sbc     #$02
ac28: 85 c1                        sta     $c1
ac2a: b0 02                        bcs     LAC2E
ac2c: c6 c2                        dec     $c2
ac2e: a9 02        LAC2E           lda     #$02
ac30: 85 bb                        sta     $bb
ac32: a9 00                        lda     #$00
ac34: 85 bc                        sta     $bc
ac36: 85 bf                        sta     $bf
ac38: 85 c0                        sta     $c0
ac3a: ad 05 c1                     lda     $c105
ac3d: 29 f8                        and     #$f8
ac3f: a8                           tay
ac40: f0 28                        beq     LAC6A
ac42: d0 11                        bne     LAC55

ac44: 20 e1 ac     LAC44           jsr     LACE1
ac47: 20 ba 82                     jsr     L82BA
ac4a: a5 c4                        lda     $c4
ac4c: 38                           sec
ac4d: e5 bb                        sbc     $bb
ac4f: a5 c5                        lda     $c5
ac51: e5 bc                        sbc     $bc
ac53: 90 15                        bcc     LAC6A
ac55: b9 07 c1     LAC55           lda     $c107,Y
ac58: 38                           sec
ac59: e5 bb                        sbc     $bb
ac5b: 85 c1                        sta     $c1
ac5d: 08                           php
ac5e: b9 06 c1                     lda     $c106,Y
ac61: 29 03                        and     #$03
ac63: 28                           plp
ac64: e5 bc                        sbc     $bc
ac66: 85 c2                        sta     $c2
ac68: 90 da                        bcc     LAC44
ac6a: 84 bd        LAC6A           sty     $bd
ac6c: 24 c6                        bit     $c6
ac6e: 30 09                        bmi     LAC79
ac70: a5 c1                        lda     $c1
ac72: 05 c2                        ora     $c2
ac74: f0 03                        beq     LAC79
ac76: 20 bd ac                     jsr     LACBD
ac79: a5 c1        LAC79           lda     $c1
ac7b: 18                           clc
ac7c: 65 bf                        adc     $bf
ac7e: 85 bf                        sta     $bf
ac80: a5 c2                        lda     $c2
ac82: 65 c0                        adc     $c0
ac84: 85 c0                        sta     $c0
ac86: a4 bd                        ldy     $bd
ac88: d0 ba                        bne     LAC44
ac8a: 24 c6                        bit     $c6
ac8c: 10 2e                        bpl     LACBC
ac8e: a8                           tay
ac8f: a6 bf                        ldx     $bf
ac91: a9 f8                        lda     #$f8
ac93: 38                           sec
ac94: ed 05 c1                     sbc     $c105
ac97: 20 0c ad                     jsr     LAD0C
ac9a: 20 9b ad                     jsr     LAD9B
ac9d: 46 72                        lsr     $72
ac9f: 65 65                        adc     $65
aca1: 0d a5 c4                     ora     $c4a5
aca4: 38                           sec
aca5: e5 bf                        sbc     $bf
aca7: aa                           tax
aca8: a5 c5                        lda     $c5
acaa: e5 c0                        sbc     $c0
acac: a8                           tay
acad: ad 05 c1                     lda     $c105
acb0: 20 0c ad                     jsr     LAD0C
acb3: 20 9b ad                     jsr     LAD9B
acb6: 55 73                        eor     $73,X
acb8: 65 64                        adc     $64
acba: 0d ea                        ora ▼   $60ea
acbc: 60           LACBC           rts

acbd: a5 bc        LACBD           lda     $bc
acbf: 20 c9 ad                     jsr     LADC9
acc2: a5 bb                        lda     $bb
acc4: 20 c1 ad                     jsr     LADC1
acc7: 20 9b ad                     jsr     LAD9B
acca: 20 20 20                     jsr     $2020
accd: 20 20 3a                     jsr     $3a20
acd0: 20 20 a5                     jsr     LA520
acd3: c2                           .dd1    $c2
acd4: 20                           .dd1    $20
acd5: c9 ad a5 c1                  .str    ↑“I-%A”
acd9: 20                           .dd1    $20
acda: c1                           .dd1    $c1
acdb: ad                           .dd1    $ad
acdc: a9                           .dd1    $a9
acdd: 0d                           .dd1    $0d
acde: 20                           .dd1    $20
acdf: e3                           .dd1    $e3
ace0: ff                           .dd1    $ff

ace1: b9 06 c1     LACE1           lda     $c106,Y
ace4: 48                           pha
ace5: 20 b0 81                     jsr     L81B0
ace8: 85 bc                        sta     $bc
acea: 68                           pla
aceb: 29 03                        and     #$03
aced: 18                           clc
acee: 65 bc                        adc     $bc
acf0: 85 bc                        sta     $bc
acf2: b9 04 c1                     lda     $c104,Y
acf5: f0 02                        beq     LACF9
acf7: a9 01                        lda     #$01
acf9: 18           LACF9           clc
acfa: 79 05 c1                     adc     $c105,Y
acfd: 90 02                        bcc     LAD01
acff: e6 bc                        inc     $bc
ad01: 18           LAD01           clc
ad02: 79 07 c1                     adc     $c107,Y
ad05: 85 bb                        sta     $bb
ad07: 90 02                        bcc     LAD0B
ad09: e6 bc                        inc     $bc
ad0b: 60           LAD0B           rts

ad0c: 20 bf 81     LAD0C           jsr     L81BF
ad0f: 20 be ad                     jsr     LADBE
ad12: 20 9b ad                     jsr     LAD9B
ad15: 20 46 69                     jsr     $6946
ad18: 6c 65 73                     jmp     ($7365)

ad1b: 20                           .dd1    $20
ad1c: 86                           .dd1    $86
ad1d: bc                           .dd1    $bc
ad1e: 84                           .dd1    $84
ad1f: bd                           .dd1    $bd
ad20: 98                           .dd1    $98
ad21: 20                           .dd1    $20
ad22: c9                           .dd1    $c9
ad23: ad                           .dd1    $ad
ad24: 8a                           .dd1    $8a
ad25: 20                           .dd1    $20
ad26: c1                           .dd1    $c1
ad27: ad                           .dd1    $ad
ad28: 20                           .dd1    $20
ad29: 9b                           .dd1    $9b
ad2a: ad                           .dd1    $ad
ad2b: 20 53 65 63+                 .str    “ Sectors ”
ad34: a9                           .dd1    $a9
ad35: 00                           .dd1    $00
ad36: 85                           .dd1    $85
ad37: bb                           .dd1    $bb
ad38: 85                           .dd1    $85
ad39: be                           .dd1    $be
ad3a: a2                           .dd1    $a2
ad3b: 1f                           .dd1    $1f
ad3c: 86                           .dd1    $86
ad3d: c1                           .dd1    $c1
ad3e: a2                           .dd1    $a2
ad3f: 09                           .dd1    $09
ad40: 9d                           .dd1    $9d
ad41: 00                           .dd1    $00
ad42: c2                           .dd1    $c2
ad43: ca                           .dd1    $ca
ad44: 10                           .dd1    $10
ad45: fa                           .dd1    $fa
ad46: 06                           .dd1    $06
ad47: bb                           .dd1    $bb
ad48: 26                           .dd1    $26
ad49: bc                           .dd1    $bc
ad4a: 26                           .dd1    $26
ad4b: bd                           .dd1    $bd
ad4c: 26                           .dd1    $26
ad4d: be                           .dd1    $be
ad4e: a2                           .dd1    $a2
ad4f: 00                           .dd1    $00
ad50: a0                           .dd1    $a0
ad51: 09                           .dd1    $09
ad52: bd                           .dd1    $bd
ad53: 00                           .dd1    $00
ad54: c2                           .dd1    $c2
ad55: 2a                           .dd1    $2a
ad56: c9                           .dd1    $c9
ad57: 0a                           .dd1    $0a
ad58: 90                           .dd1    $90
ad59: 02                           .dd1    $02
ad5a: e9                           .dd1    $e9
ad5b: 0a                           .dd1    $0a
ad5c: 9d                           .dd1    $9d
ad5d: 00                           .dd1    $00
ad5e: c2                           .dd1    $c2
ad5f: e8                           .dd1    $e8
ad60: 88                           .dd1    $88
ad61: 10                           .dd1    $10
ad62: ef                           .dd1    $ef
ad63: c6                           .dd1    $c6
ad64: c1                           .dd1    $c1
ad65: 10                           .dd1    $10
ad66: df                           .dd1    $df
ad67: a0                           .dd1    $a0
ad68: 20                           .dd1    $20
ad69: a2                           .dd1    $a2
ad6a: 05                           .dd1    $05
ad6b: d0                           .dd1    $d0
ad6c: 02                           .dd1    $02
ad6d: a0                           .dd1    $a0
ad6e: 2c                           .dd1    $2c
ad6f: bd                           .dd1    $bd
ad70: 00                           .dd1    $00
ad71: c2                           .dd1    $c2
ad72: d0                           .dd1    $d0
ad73: 08                           .dd1    $08
ad74: c0                           .dd1    $c0
ad75: 2c                           .dd1    $2c
ad76: f0                           .dd1    $f0
ad77: 04                           .dd1    $04
ad78: a9                           .dd1    $a9
ad79: 20                           .dd1    $20
ad7a: d0                           .dd1    $d0
ad7b: 05                           .dd1    $05
ad7c: a0                           .dd1    $a0
ad7d: 2c                           .dd1    $2c
ad7e: 18                           .dd1    $18
ad7f: 69                           .dd1    $69
ad80: 30                           .dd1    $30
ad81: 20                           .dd1    $20
ad82: e3                           .dd1    $e3
ad83: ff                           .dd1    $ff
ad84: e0                           .dd1    $e0
ad85: 03                           .dd1    $03
ad86: d0                           .dd1    $d0
ad87: 04                           .dd1    $04
ad88: 98                           .dd1    $98
ad89: 20                           .dd1    $20
ad8a: e3                           .dd1    $e3
ad8b: ff                           .dd1    $ff
ad8c: ca                           .dd1    $ca
ad8d: 10                           .dd1    $10
ad8e: dc                           .dd1    $dc
ad8f: 20                           .dd1    $20
ad90: 9b                           .dd1    $9b
ad91: ad                           .dd1    $ad
ad92: 20 42 79 74+                 .str    “ Bytes ”
ad99: ea                           .dd1    $ea
ad9a: 60                           .dd1    $60

ad9b: 85 b3        LAD9B           sta     $b3
ad9d: 68                           pla
ad9e: 85 ae                        sta     $ae
ada0: 68                           pla
ada1: 85 af                        sta     $af
ada3: a5 b3                        lda     $b3
ada5: 48                           pha
ada6: 98                           tya
ada7: 48                           pha
ada8: a0 00                        ldy     #$00
adaa: 20 e4 83     LADAA           jsr     L83E4
adad: b1 ae                        lda     ($ae),Y
adaf: 30 06                        bmi     LADB7
adb1: 20 e3 ff                     jsr     $ffe3
adb4: 4c aa ad                     jmp     LADAA

adb7: 68           LADB7           pla
adb8: a8                           tay
adb9: 68                           pla
adba: 18                           clc
adbb: 6c ae 00                     jmp     ($00ae)

adbe: 20 1d 84     LADBE           jsr     L841D
adc1: 48           LADC1           pha
adc2: 20 be 81                     jsr     L81BE
adc5: 20 c9 ad                     jsr     LADC9
adc8: 68                           pla
adc9: 20 c8 80     LADC9           jsr     L80C8
adcc: 4c e3 ff                     jmp     $ffe3

adcf: 20 d2 ad     LADCF           jsr     LADD2
add2: 48           LADD2           pha
add3: a9 20                        lda     #$20
add5: 20 e3 ff                     jsr     $ffe3
add8: 68                           pla
add9: 18                           clc
adda: 60                           rts

addb: 20 eb 83     LADDB           jsr     savita
adde: a9 40                        lda     #$40
ade0: 8d de c2                     sta     $c2de
ade3: a9 a8                        lda     #$a8
ade5: 20 d9 a5                     jsr     LA5D9
ade8: 86 b0                        stx     $b0
adea: 84 b1                        sty     $b1
adec: a0 0f                        ldy     #$0f
adee: a9 4c                        lda     #$4c
adf0: 8d e2 c2                     sta     $c2e2
adf3: ad 0a 02                     lda     $020a
adf6: 8d e3 c2                     sta     $c2e3
adf9: ad 0b 02                     lda     $020b
adfc: 8d e4 c2                     sta     $c2e4
adff: 08                           php
ae00: 78                           sei
ae01: a9 0f                        lda     #$0f
ae03: 8d 0a 02                     sta     $020a
ae06: a9 ff                        lda     #$ff
ae08: 8d 0b 02                     sta     $020b
ae0b: a9 1b                        lda     #$1b
ae0d: 91 b0                        sta     ($b0),Y
ae0f: c8                           iny
ae10: a9 ae                        lda     #$ae
ae12: 91 b0                        sta     ($b0),Y
ae14: c8                           iny
ae15: a5 f4                        lda     $f4
ae17: 91 b0                        sta     ($b0),Y
ae19: 28                           plp
ae1a: 60                           rts

ae1b: c9                           .dd1    $c9
ae1c: 00                           .dd1    $00
ae1d: f0                           .dd1    $f0
ae1e: 11                           .dd1    $11
ae1f: c9                           .dd1    $c9
ae20: 81                           .dd1    $81
ae21: d0                           .dd1    $d0
ae22: 0a                           .dd1    $0a
ae23: c0                           .dd1    $c0
ae24: ff                           .dd1    $ff
ae25: d0                           .dd1    $d0
ae26: 06                           .dd1    $06
ae27: e0                           .dd1    $e0
ae28: 00                           .dd1    $00
ae29: d0                           .dd1    $d0
ae2a: 02                           .dd1    $02
ae2b: ca                           .dd1    $ca
ae2c: 60                           .dd1    $60
ae2d: 4c                           .dd1    $4c
ae2e: e2                           .dd1    $e2
ae2f: c2                           .dd1    $c2
ae30: 08                           .dd1    $08
ae31: 78                           .dd1    $78
ae32: ad e3 c2 8d                  .str    ↑“-cB”,$8d
ae36: 0a                           .dd1    $0a
ae37: 02                           .dd1    $02
ae38: ad e4 c2 8d                  .str    ↑“-dB”,$8d
ae3c: 0b                           .dd1    $0b
ae3d: 02                           .dd1    $02
ae3e: a9                           .dd1    $a9
ae3f: 00                           .dd1    $00
ae40: a2                           .dd1    $a2
ae41: 01                           .dd1    $01
ae42: 28                           .dd1    $28
ae43: 60                           .dd1    $60
ae44: ff ff ff ff+                 .fill   188,$ff
                                   .adrend ↑ $8000
